---
triple:          'arm64-apple-darwin'
binary-path:     MatamStoryTest
relocations:
  - { offsetInCU: 0x9A61, offset: 0x9A61, size: 0x8, addend: 0x0, symName: __ZNSt3__124__put_character_sequenceB8ue170006IcNS_11char_traitsIcEEEERNS_13basic_ostreamIT_T0_EES7_PKS4_m, symObjAddr: 0x47D8, symBinAddr: 0x100005684, symSize: 0x1EC }
  - { offsetInCU: 0xB42E, offset: 0xB42E, size: 0x8, addend: 0x0, symName: __ZNSt3__111__introsortINS_17_ClassicAlgPolicyERNS_6__lessIvvEEP6PlayerLb0EEEvT1_S7_T0_NS_15iterator_traitsIS7_E15difference_typeEb, symObjAddr: 0xA89C, symBinAddr: 0x10000B748, symSize: 0x470 }
  - { offsetInCU: 0xB559, offset: 0xB559, size: 0x8, addend: 0x0, symName: __ZNSt3__126__insertion_sort_unguardedB8ue170006INS_17_ClassicAlgPolicyERNS_6__lessIvvEEP6PlayerEEvT1_S7_T0_, symObjAddr: 0xB018, symBinAddr: 0x10000BEC4, symSize: 0x174 }
  - { offsetInCU: 0xB632, offset: 0xB632, size: 0x8, addend: 0x0, symName: __ZNSt3__111__sift_downB8ue170006INS_17_ClassicAlgPolicyERNS_6__lessIvvEEP6PlayerEEvT1_OT0_NS_15iterator_traitsIS7_E15difference_typeES7_, symObjAddr: 0xC720, symBinAddr: 0x10000D5CC, symSize: 0x27C }
  - { offsetInCU: 0xB6DF, offset: 0xB6DF, size: 0x8, addend: 0x0, symName: __ZNSt3__117__floyd_sift_downB8ue170006INS_17_ClassicAlgPolicyERNS_6__lessIvvEEP6PlayerEET1_S7_OT0_NS_15iterator_traitsIS7_E15difference_typeE, symObjAddr: 0xCB8C, symBinAddr: 0x10000DA38, symSize: 0x108 }
  - { offsetInCU: 0xB777, offset: 0xB777, size: 0x8, addend: 0x0, symName: __ZNSt3__131__partition_with_equals_on_leftB8ue170006INS_17_ClassicAlgPolicyEP6PlayerRNS_6__lessIvvEEEET0_S7_S7_T1_, symObjAddr: 0xB398, symBinAddr: 0x10000C244, symSize: 0x298 }
  - { offsetInCU: 0xB834, offset: 0xB834, size: 0x8, addend: 0x0, symName: __ZNSt3__118__bitset_partitionB8ue170006INS_17_ClassicAlgPolicyEP6PlayerRNS_6__lessIvvEEEENS_4pairIT0_bEES8_S8_T1_, symObjAddr: 0xB630, symBinAddr: 0x10000C4DC, symSize: 0x3BC }
  - { offsetInCU: 0xB932, offset: 0xB932, size: 0x8, addend: 0x0, symName: __ZNSt3__124__swap_bitmap_pos_withinB8ue170006INS_17_ClassicAlgPolicyEP6PlayerEEvRT0_S5_RyS6_, symObjAddr: 0xD340, symBinAddr: 0x10000E1EC, symSize: 0x1E8 }
  - { offsetInCU: 0xB9FF, offset: 0xB9FF, size: 0x8, addend: 0x0, symName: __ZNSt3__132__partition_with_equals_on_rightB8ue170006INS_17_ClassicAlgPolicyEP6PlayerRNS_6__lessIvvEEEENS_4pairIT0_bEES8_S8_T1_, symObjAddr: 0xB9EC, symBinAddr: 0x10000C898, symSize: 0x29C }
  - { offsetInCU: 0xBACA, offset: 0xBACA, size: 0x8, addend: 0x0, symName: __ZNSt3__127__insertion_sort_incompleteB8ue170006INS_17_ClassicAlgPolicyERNS_6__lessIvvEEP6PlayerEEbT1_S7_T0_, symObjAddr: 0xBC88, symBinAddr: 0x10000CB34, symSize: 0x36C }
  - { offsetInCU: 0xCBAC, offset: 0xCBAC, size: 0x8, addend: 0x0, symName: __ZNSt3__17getlineB8ue170006IcNS_11char_traitsIcEENS_9allocatorIcEEEERNS_13basic_istreamIT_T0_EES9_RNS_12basic_stringIS6_S7_T1_EE, symObjAddr: 0xBF0, symBinAddr: 0x100001A9C, symSize: 0x5C }
  - { offsetInCU: 0xCC04, offset: 0xCC04, size: 0x8, addend: 0x0, symName: __ZNSt3__1rsB8ue170006IcNS_11char_traitsIcEENS_9allocatorIcEEEERNS_13basic_istreamIT_T0_EES9_RNS_12basic_stringIS6_S7_T1_EE, symObjAddr: 0xD74, symBinAddr: 0x100001C20, symSize: 0x31C }
  - { offsetInCU: 0xCCD3, offset: 0xCCD3, size: 0x8, addend: 0x0, symName: __ZNSt3__1lsB8ue170006INS_11char_traitsIcEEEERNS_13basic_ostreamIcT_EES6_PKc, symObjAddr: 0x1090, symBinAddr: 0x100001F3C, symSize: 0x48 }
  - { offsetInCU: 0xCD19, offset: 0xCD19, size: 0x8, addend: 0x0, symName: __ZNSt3__14endlB8ue170006IcNS_11char_traitsIcEEEERNS_13basic_ostreamIT_T0_EES7_, symObjAddr: 0x1104, symBinAddr: 0x100001FB0, symSize: 0x58 }
  - { offsetInCU: 0xCD59, offset: 0xCD59, size: 0x8, addend: 0x0, symName: __ZNSt3__1eqB8ue170006IcNS_11char_traitsIcEENS_9allocatorIcEEEEbRKNS_12basic_stringIT_T0_T1_EEPKS6_, symObjAddr: 0x1384, symBinAddr: 0x100002230, symSize: 0xAC }
  - { offsetInCU: 0xCDC0, offset: 0xCDC0, size: 0x8, addend: 0x0, symName: __ZNSt3__111make_uniqueB8ue170006I9EncounterJNS_10unique_ptrI7MonsterNS_14default_deleteIS3_EEEEEEENS_11__unique_ifIT_E15__unique_singleEDpOT0_, symObjAddr: 0x14A4, symBinAddr: 0x100002350, symSize: 0xBC }
  - { offsetInCU: 0xCE02, offset: 0xCE02, size: 0x8, addend: 0x0, symName: __ZNSt3__111make_uniqueB8ue170006I15PotionsMerchantJEEENS_11__unique_ifIT_E15__unique_singleEDpOT0_, symObjAddr: 0x162C, symBinAddr: 0x1000024D8, symSize: 0x78 }
  - { offsetInCU: 0xCE2F, offset: 0xCE2F, size: 0x8, addend: 0x0, symName: __ZNSt3__111make_uniqueB8ue170006I12SolarEclipseJEEENS_11__unique_ifIT_E15__unique_singleEDpOT0_, symObjAddr: 0x1744, symBinAddr: 0x1000025F0, symSize: 0x78 }
  - { offsetInCU: 0xCE5C, offset: 0xCE5C, size: 0x8, addend: 0x0, symName: __ZNSt3__17getlineB8ue170006IcNS_11char_traitsIcEENS_9allocatorIcEEEERNS_13basic_istreamIT_T0_EES9_RNS_12basic_stringIS6_S7_T1_EES6_, symObjAddr: 0x1AD8, symBinAddr: 0x100002984, symSize: 0x234 }
  - { offsetInCU: 0xCF1A, offset: 0xCF1A, size: 0x8, addend: 0x0, symName: __ZNSt3__1neB8ue170006IP6PlayerEEbRKNS_11__wrap_iterIT_EES7_, symObjAddr: 0x20D0, symBinAddr: 0x100002F7C, symSize: 0x34 }
  - { offsetInCU: 0xCF5D, offset: 0xCF5D, size: 0x8, addend: 0x0, symName: __ZNSt3__1eqB8ue170006IPNS_10unique_ptrI5EventNS_14default_deleteIS2_EEEEEEbRKNS_11__wrap_iterIT_EESB_, symObjAddr: 0x21AC, symBinAddr: 0x100003058, symSize: 0x48 }
  - { offsetInCU: 0xCFA0, offset: 0xCFA0, size: 0x8, addend: 0x0, symName: __ZNSt3__14sortB8ue170006INS_11__wrap_iterIP6PlayerEEEEvT_S5_, symObjAddr: 0x2278, symBinAddr: 0x100003124, symSize: 0x3C }
  - { offsetInCU: 0xCFE2, offset: 0xCFE2, size: 0x8, addend: 0x0, symName: __ZNSt3__1neB8ue170006IPK6PlayerEEbRKNS_11__wrap_iterIT_EES8_, symObjAddr: 0x2488, symBinAddr: 0x100003334, symSize: 0x34 }
  - { offsetInCU: 0xD041, offset: 0xD041, size: 0x8, addend: 0x0, symName: __ZNSt3__1neB8ue170006IPK6PlayerPS1_EEbRKNS_11__wrap_iterIT_EERKNS5_IT0_EE, symObjAddr: 0x26B4, symBinAddr: 0x100003560, symSize: 0x34 }
  - { offsetInCU: 0xD08D, offset: 0xD08D, size: 0x8, addend: 0x0, symName: __ZNSt3__1eqB8ue170006IP6PlayerEEbRKNS_11__wrap_iterIT_EES7_, symObjAddr: 0x2990, symBinAddr: 0x10000383C, symSize: 0x48 }
  - { offsetInCU: 0xD0D0, offset: 0xD0D0, size: 0x8, addend: 0x0, symName: __ZNSt3__112__to_addressB8ue170006I6PlayerEEPT_S3_, symObjAddr: 0x29F0, symBinAddr: 0x10000389C, symSize: 0x14 }
  - { offsetInCU: 0xD105, offset: 0xD105, size: 0x8, addend: 0x0, symName: __ZNSt3__1eqB8ue170006IPK6PlayerEEbRKNS_11__wrap_iterIT_EES8_, symObjAddr: 0x2A1C, symBinAddr: 0x1000038C8, symSize: 0x48 }
  - { offsetInCU: 0xD148, offset: 0xD148, size: 0x8, addend: 0x0, symName: __ZNSt3__112__to_addressB8ue170006IK6PlayerEEPT_S4_, symObjAddr: 0x2A7C, symBinAddr: 0x100003928, symSize: 0x14 }
  - { offsetInCU: 0xD17D, offset: 0xD17D, size: 0x8, addend: 0x0, symName: __ZNSt3__1eqB8ue170006IPK6PlayerPS1_EEbRKNS_11__wrap_iterIT_EERKNS5_IT0_EE, symObjAddr: 0x2AE8, symBinAddr: 0x100003994, symSize: 0x48 }
  - { offsetInCU: 0xD1C9, offset: 0xD1C9, size: 0x8, addend: 0x0, symName: __ZNSt3__119__libcpp_deallocateB8ue170006EPvmm, symObjAddr: 0x326C, symBinAddr: 0x100004118, symSize: 0x60 }
  - { offsetInCU: 0xD22E, offset: 0xD22E, size: 0x8, addend: 0x0, symName: __ZNSt3__124__is_overaligned_for_newB8ue170006Em, symObjAddr: 0x32CC, symBinAddr: 0x100004178, symSize: 0x20 }
  - { offsetInCU: 0xD25C, offset: 0xD25C, size: 0x8, addend: 0x0, symName: __ZNSt3__127__do_deallocate_handle_sizeB8ue170006IJSt11align_val_tEEEvPvmDpT_, symObjAddr: 0x32EC, symBinAddr: 0x100004198, symSize: 0x30 }
  - { offsetInCU: 0xD2AF, offset: 0xD2AF, size: 0x8, addend: 0x0, symName: __ZNSt3__127__do_deallocate_handle_sizeB8ue170006IJEEEvPvmDpT_, symObjAddr: 0x331C, symBinAddr: 0x1000041C8, symSize: 0x28 }
  - { offsetInCU: 0xD2ED, offset: 0xD2ED, size: 0x8, addend: 0x0, symName: __ZNSt3__124__libcpp_operator_deleteB8ue170006IJPvSt11align_val_tEEEvDpT_, symObjAddr: 0x3344, symBinAddr: 0x1000041F0, symSize: 0x2C }
  - { offsetInCU: 0xD336, offset: 0xD336, size: 0x8, addend: 0x0, symName: __ZNSt3__124__libcpp_operator_deleteB8ue170006IJPvEEEvDpT_, symObjAddr: 0x3370, symBinAddr: 0x10000421C, symSize: 0x24 }
  - { offsetInCU: 0xD36B, offset: 0xD36B, size: 0x8, addend: 0x0, symName: __ZNSt3__112__to_addressB8ue170006INS_10unique_ptrI5EventNS_14default_deleteIS2_EEEEEEPT_S7_, symObjAddr: 0x3788, symBinAddr: 0x100004634, symSize: 0x14 }
  - { offsetInCU: 0xD3A0, offset: 0xD3A0, size: 0x8, addend: 0x0, symName: __ZNSt3__19use_facetB8ue170006INS_5ctypeIcEEEERKT_RKNS_6localeE, symObjAddr: 0x3D28, symBinAddr: 0x100004BD4, symSize: 0x2C }
  - { offsetInCU: 0xDB87, offset: 0xDB87, size: 0x8, addend: 0x0, symName: __ZNSt3__116__pad_and_outputB8ue170006IcNS_11char_traitsIcEEEENS_19ostreambuf_iteratorIT_T0_EES6_PKS4_S8_S8_RNS_8ios_baseES4_, symObjAddr: 0x4A14, symBinAddr: 0x1000058C0, symSize: 0x240 }
  - { offsetInCU: 0xDC56, offset: 0xDC56, size: 0x8, addend: 0x0, symName: __ZNSt3__112__to_addressB8ue170006IcEEPT_S2_, symObjAddr: 0x4E14, symBinAddr: 0x100005CC0, symSize: 0x14 }
  - { offsetInCU: 0xDC8B, offset: 0xDC8B, size: 0x8, addend: 0x0, symName: __ZNSt3__118__constexpr_strlenB8ue170006EPKc, symObjAddr: 0x4ED0, symBinAddr: 0x100005D7C, symSize: 0x24 }
  - { offsetInCU: 0xDCB7, offset: 0xDCB7, size: 0x8, addend: 0x0, symName: __ZNSt3__134__libcpp_atomic_refcount_decrementB8ue170006IlEET_RS1_, symObjAddr: 0x5000, symBinAddr: 0x100005EAC, symSize: 0x30 }
  - { offsetInCU: 0xDCEC, offset: 0xDCEC, size: 0x8, addend: 0x0, symName: __ZNSt3__14swapB8ue170006IP3JobEENS_9enable_ifIXaasr21is_move_constructibleIT_EE5valuesr18is_move_assignableIS4_EE5valueEvE4typeERS4_S7_, symObjAddr: 0x513C, symBinAddr: 0x100005FE8, symSize: 0x3C }
  - { offsetInCU: 0xDD3D, offset: 0xDD3D, size: 0x8, addend: 0x0, symName: __ZNSt3__14swapB8ue170006IPNS_19__shared_weak_countEEENS_9enable_ifIXaasr21is_move_constructibleIT_EE5valuesr18is_move_assignableIS4_EE5valueEvE4typeERS4_S7_, symObjAddr: 0x5178, symBinAddr: 0x100006024, symSize: 0x3C }
  - { offsetInCU: 0xDD8E, offset: 0xDD8E, size: 0x8, addend: 0x0, symName: __ZNSt3__14swapB8ue170006IP9CharacterEENS_9enable_ifIXaasr21is_move_constructibleIT_EE5valuesr18is_move_assignableIS4_EE5valueEvE4typeERS4_S7_, symObjAddr: 0x526C, symBinAddr: 0x100006118, symSize: 0x3C }
  - { offsetInCU: 0xDDDF, offset: 0xDDDF, size: 0x8, addend: 0x0, symName: __ZNSt3__134__libcpp_atomic_refcount_incrementB8ue170006IlEET_RS1_, symObjAddr: 0x5794, symBinAddr: 0x100006640, symSize: 0x30 }
  - { offsetInCU: 0xDE14, offset: 0xDE14, size: 0x8, addend: 0x0, symName: __ZNSt3__13maxB8ue170006ImEERKT_S3_S3_, symObjAddr: 0x5B04, symBinAddr: 0x1000069B0, symSize: 0x2C }
  - { offsetInCU: 0xDE57, offset: 0xDE57, size: 0x8, addend: 0x0, symName: __ZNSt3__13minB8ue170006ImEERKT_S3_S3_, symObjAddr: 0x5B30, symBinAddr: 0x1000069DC, symSize: 0x2C }
  - { offsetInCU: 0xDE9A, offset: 0xDE9A, size: 0x8, addend: 0x0, symName: __ZNSt3__13minB8ue170006ImNS_6__lessIvvEEEERKT_S5_S5_T0_, symObjAddr: 0x5BA8, symBinAddr: 0x100006A54, symSize: 0x54 }
  - { offsetInCU: 0xDF6A, offset: 0xDF6A, size: 0x8, addend: 0x0, symName: __ZNSt3__120__throw_length_errorB8ue170006EPKc, symObjAddr: 0x5C80, symBinAddr: 0x100006B2C, symSize: 0x64 }
  - { offsetInCU: 0xDF94, offset: 0xDF94, size: 0x8, addend: 0x0, symName: __ZNSt3__13maxB8ue170006ImNS_6__lessIvvEEEERKT_S5_S5_T0_, symObjAddr: 0x5D64, symBinAddr: 0x100006C10, symSize: 0x54 }
  - { offsetInCU: 0xDFEE, offset: 0xDFEE, size: 0x8, addend: 0x0, symName: __ZNSt3__119__allocate_at_leastB8ue170006INS_9allocatorI6PlayerEEEENS_19__allocation_resultINS_16allocator_traitsIT_E7pointerEEERS6_m, symObjAddr: 0x5ED4, symBinAddr: 0x100006D80, symSize: 0x40 }
  - { offsetInCU: 0xE031, offset: 0xE031, size: 0x8, addend: 0x0, symName: __ZNSt3__117__libcpp_allocateB8ue170006Emm, symObjAddr: 0x605C, symBinAddr: 0x100006F08, symSize: 0x60 }
  - { offsetInCU: 0xE08B, offset: 0xE08B, size: 0x8, addend: 0x0, symName: __ZNSt3__121__libcpp_operator_newB8ue170006IJmSt11align_val_tEEEPvDpT_, symObjAddr: 0x60BC, symBinAddr: 0x100006F68, symSize: 0x2C }
  - { offsetInCU: 0xE0D8, offset: 0xE0D8, size: 0x8, addend: 0x0, symName: __ZNSt3__121__libcpp_operator_newB8ue170006IJmEEEPvDpT_, symObjAddr: 0x60E8, symBinAddr: 0x100006F94, symSize: 0x24 }
  - { offsetInCU: 0xE111, offset: 0xE111, size: 0x8, addend: 0x0, symName: __ZNSt3__142__uninitialized_allocator_move_if_noexceptB8ue170006INS_9allocatorI6PlayerEENS_16reverse_iteratorIPS2_EES6_S6_EET2_RT_T0_T1_S7_, symObjAddr: 0x6170, symBinAddr: 0x10000701C, symSize: 0x12C }
  - { offsetInCU: 0xE1B1, offset: 0xE1B1, size: 0x8, addend: 0x0, symName: __ZNSt3__14swapB8ue170006IP6PlayerEENS_9enable_ifIXaasr21is_move_constructibleIT_EE5valuesr18is_move_assignableIS4_EE5valueEvE4typeERS4_S7_, symObjAddr: 0x62E8, symBinAddr: 0x100007194, symSize: 0x3C }
  - { offsetInCU: 0xE202, offset: 0xE202, size: 0x8, addend: 0x0, symName: __ZNSt3__122__make_exception_guardB8ue170006INS_29_AllocatorDestroyRangeReverseINS_9allocatorI6PlayerEENS_16reverse_iteratorIPS3_EEEEEENS_28__exception_guard_exceptionsIT_EESA_, symObjAddr: 0x63EC, symBinAddr: 0x100007298, symSize: 0x4C }
  - { offsetInCU: 0xE238, offset: 0xE238, size: 0x8, addend: 0x0, symName: __ZNSt3__1neB8ue170006IP6PlayerS2_EEbRKNS_16reverse_iteratorIT_EERKNS3_IT0_EE, symObjAddr: 0x647C, symBinAddr: 0x100007328, symSize: 0x48 }
  - { offsetInCU: 0xE284, offset: 0xE284, size: 0x8, addend: 0x0, symName: __ZNSt3__112__to_addressB8ue170006INS_16reverse_iteratorIP6PlayerEEvEEu7__decayIDTclsr19__to_address_helperIT_EE6__callclsr3stdE7declvalIRKS5_EEEEES7_, symObjAddr: 0x64F8, symBinAddr: 0x1000073A4, symSize: 0x24 }
  - { offsetInCU: 0xE2E3, offset: 0xE2E3, size: 0x8, addend: 0x0, symName: __ZNSt3__119__allocator_destroyB8ue170006INS_9allocatorI6PlayerEENS_16reverse_iteratorINS4_IPS2_EEEES7_EEvRT_T0_T1_, symObjAddr: 0x68F8, symBinAddr: 0x1000077A4, symSize: 0x70 }
  - { offsetInCU: 0xE348, offset: 0xE348, size: 0x8, addend: 0x0, symName: __ZNSt3__1neB8ue170006INS_16reverse_iteratorIP6PlayerEES4_EEbRKNS1_IT_EERKNS1_IT0_EE, symObjAddr: 0x69A4, symBinAddr: 0x100007850, symSize: 0x60 }
  - { offsetInCU: 0xE394, offset: 0xE394, size: 0x8, addend: 0x0, symName: __ZNSt3__112__to_addressB8ue170006INS_16reverse_iteratorINS1_IP6PlayerEEEEvEEu7__decayIDTclsr19__to_address_helperIT_EE6__callclsr3stdE7declvalIRKS6_EEEEES8_, symObjAddr: 0x6A04, symBinAddr: 0x1000078B0, symSize: 0x24 }
  - { offsetInCU: 0xE3F3, offset: 0xE3F3, size: 0x8, addend: 0x0, symName: __ZNSt3__119__allocate_at_leastB8ue170006INS_9allocatorINS_10unique_ptrI5EventNS_14default_deleteIS3_EEEEEEEENS_19__allocation_resultINS_16allocator_traitsIT_E7pointerEEERSA_m, symObjAddr: 0x7D28, symBinAddr: 0x100008BD4, symSize: 0x40 }
  - { offsetInCU: 0xE436, offset: 0xE436, size: 0x8, addend: 0x0, symName: __ZNSt3__142__uninitialized_allocator_move_if_noexceptB8ue170006INS_9allocatorINS_10unique_ptrI5EventNS_14default_deleteIS3_EEEEEENS_16reverse_iteratorIPS6_EESA_SA_EET2_RT_T0_T1_SB_, symObjAddr: 0x7EDC, symBinAddr: 0x100008D88, symSize: 0x12C }
  - { offsetInCU: 0xE4D6, offset: 0xE4D6, size: 0x8, addend: 0x0, symName: __ZNSt3__14swapB8ue170006IPNS_10unique_ptrI5EventNS_14default_deleteIS2_EEEEEENS_9enable_ifIXaasr21is_move_constructibleIT_EE5valuesr18is_move_assignableIS8_EE5valueEvE4typeERS8_SB_, symObjAddr: 0x8054, symBinAddr: 0x100008F00, symSize: 0x3C }
  - { offsetInCU: 0xE527, offset: 0xE527, size: 0x8, addend: 0x0, symName: __ZNSt3__122__make_exception_guardB8ue170006INS_29_AllocatorDestroyRangeReverseINS_9allocatorINS_10unique_ptrI5EventNS_14default_deleteIS4_EEEEEENS_16reverse_iteratorIPS7_EEEEEENS_28__exception_guard_exceptionsIT_EESE_, symObjAddr: 0x813C, symBinAddr: 0x100008FE8, symSize: 0x4C }
  - { offsetInCU: 0xE55D, offset: 0xE55D, size: 0x8, addend: 0x0, symName: __ZNSt3__1neB8ue170006IPNS_10unique_ptrI5EventNS_14default_deleteIS2_EEEES6_EEbRKNS_16reverse_iteratorIT_EERKNS7_IT0_EE, symObjAddr: 0x81CC, symBinAddr: 0x100009078, symSize: 0x48 }
  - { offsetInCU: 0xE5A9, offset: 0xE5A9, size: 0x8, addend: 0x0, symName: __ZNSt3__112__to_addressB8ue170006INS_16reverse_iteratorIPNS_10unique_ptrI5EventNS_14default_deleteIS3_EEEEEEvEEu7__decayIDTclsr19__to_address_helperIT_EE6__callclsr3stdE7declvalIRKS9_EEEEESB_, symObjAddr: 0x8248, symBinAddr: 0x1000090F4, symSize: 0x24 }
  - { offsetInCU: 0xE608, offset: 0xE608, size: 0x8, addend: 0x0, symName: __ZNSt3__119__allocator_destroyB8ue170006INS_9allocatorINS_10unique_ptrI5EventNS_14default_deleteIS3_EEEEEENS_16reverse_iteratorINS8_IPS6_EEEESB_EEvRT_T0_T1_, symObjAddr: 0x86E0, symBinAddr: 0x10000958C, symSize: 0x70 }
  - { offsetInCU: 0xE66D, offset: 0xE66D, size: 0x8, addend: 0x0, symName: __ZNSt3__1neB8ue170006INS_16reverse_iteratorIPNS_10unique_ptrI5EventNS_14default_deleteIS3_EEEEEES8_EEbRKNS1_IT_EERKNS1_IT0_EE, symObjAddr: 0x878C, symBinAddr: 0x100009638, symSize: 0x60 }
  - { offsetInCU: 0xE6B9, offset: 0xE6B9, size: 0x8, addend: 0x0, symName: __ZNSt3__112__to_addressB8ue170006INS_16reverse_iteratorINS1_IPNS_10unique_ptrI5EventNS_14default_deleteIS3_EEEEEEEEvEEu7__decayIDTclsr19__to_address_helperIT_EE6__callclsr3stdE7declvalIRKSA_EEEEESC_, symObjAddr: 0x87EC, symBinAddr: 0x100009698, symSize: 0x24 }
  - { offsetInCU: 0xE718, offset: 0xE718, size: 0x8, addend: 0x0, symName: __ZNSt3__122__make_exception_guardB8ue170006INS_6vectorI6PlayerNS_9allocatorIS2_EEE16__destroy_vectorEEENS_28__exception_guard_exceptionsIT_EES8_, symObjAddr: 0x9D40, symBinAddr: 0x10000ABEC, symSize: 0x40 }
  - { offsetInCU: 0xE74D, offset: 0xE74D, size: 0x8, addend: 0x0, symName: __ZNSt3__130__uninitialized_allocator_copyB8ue170006INS_9allocatorI6PlayerEEPS2_S4_S4_EET2_RT_T0_T1_S5_, symObjAddr: 0x9F60, symBinAddr: 0x10000AE0C, symSize: 0x80 }
  - { offsetInCU: 0xE7EA, offset: 0xE7EA, size: 0x8, addend: 0x0, symName: __ZNSt3__114__unwrap_rangeB8ue170006IP6PlayerS2_EENS_4pairIT0_S4_EET_S6_, symObjAddr: 0x9FE0, symBinAddr: 0x10000AE8C, symSize: 0x60 }
  - { offsetInCU: 0xE836, offset: 0xE836, size: 0x8, addend: 0x0, symName: __ZNSt3__135__uninitialized_allocator_copy_implB8ue170006INS_9allocatorI6PlayerEEPS2_S4_S4_EET2_RT_T0_T1_S5_, symObjAddr: 0xA040, symBinAddr: 0x10000AEEC, symSize: 0xF4 }
  - { offsetInCU: 0xE8D4, offset: 0xE8D4, size: 0x8, addend: 0x0, symName: __ZNSt3__113__unwrap_iterB8ue170006IP6PlayerNS_18__unwrap_iter_implIS2_Lb1EEELi0EEEDTclsrT0_8__unwrapclsr3stdE7declvalIT_EEEES6_, symObjAddr: 0xA134, symBinAddr: 0x10000AFE0, symSize: 0x24 }
  - { offsetInCU: 0xE918, offset: 0xE918, size: 0x8, addend: 0x0, symName: __ZNSt3__113__rewrap_iterB8ue170006IP6PlayerS2_NS_18__unwrap_iter_implIS2_Lb1EEEEET_S5_T0_, symObjAddr: 0xA158, symBinAddr: 0x10000B004, symSize: 0x3C }
  - { offsetInCU: 0xE96D, offset: 0xE96D, size: 0x8, addend: 0x0, symName: __ZNSt3__19make_pairB8ue170006IP6PlayerS2_EENS_4pairINS_18__unwrap_ref_decayIT_E4typeENS4_IT0_E4typeEEEOS5_OS8_, symObjAddr: 0xA194, symBinAddr: 0x10000B040, symSize: 0x38 }
  - { offsetInCU: 0xEA90, offset: 0xEA90, size: 0x8, addend: 0x0, symName: __ZNSt3__122__make_exception_guardB8ue170006INS_29_AllocatorDestroyRangeReverseINS_9allocatorI6PlayerEEPS3_EEEENS_28__exception_guard_exceptionsIT_EES8_, symObjAddr: 0xA23C, symBinAddr: 0x10000B0E8, symSize: 0x4C }
  - { offsetInCU: 0xEAC6, offset: 0xEAC6, size: 0x8, addend: 0x0, symName: __ZNSt3__119__allocator_destroyB8ue170006INS_9allocatorI6PlayerEENS_16reverse_iteratorIPS2_EES6_EEvRT_T0_T1_, symObjAddr: 0xA570, symBinAddr: 0x10000B41C, symSize: 0x70 }
  - { offsetInCU: 0xEB7C, offset: 0xEB7C, size: 0x8, addend: 0x0, symName: __ZNSt3__14sortB8ue170006INS_11__wrap_iterIP6PlayerEENS_6__lessIvvEEEEvT_S7_T0_, symObjAddr: 0xA6A4, symBinAddr: 0x10000B550, symSize: 0x40 }
  - { offsetInCU: 0xEBD6, offset: 0xEBD6, size: 0x8, addend: 0x0, symName: __ZNSt3__111__sort_implB8ue170006INS_17_ClassicAlgPolicyENS_11__wrap_iterIP6PlayerEENS_6__lessIvvEEEEvT0_S8_RT1_, symObjAddr: 0xA6E4, symBinAddr: 0x10000B590, symSize: 0xA8 }
  - { offsetInCU: 0xEC39, offset: 0xEC39, size: 0x8, addend: 0x0, symName: __ZNSt3__123__debug_randomize_rangeB8ue170006INS_17_ClassicAlgPolicyENS_11__wrap_iterIP6PlayerEES5_EEvT0_T1_, symObjAddr: 0xA78C, symBinAddr: 0x10000B638, symSize: 0x14 }
  - { offsetInCU: 0xEC8A, offset: 0xEC8A, size: 0x8, addend: 0x0, symName: __ZNSt3__115__sort_dispatchB8ue170006INS_17_ClassicAlgPolicyEP6PlayerNS_6__lessIvvEEEEvT0_S6_RT1_, symObjAddr: 0xA7A0, symBinAddr: 0x10000B64C, symSize: 0x64 }
  - { offsetInCU: 0xED08, offset: 0xED08, size: 0x8, addend: 0x0, symName: __ZNSt3__113__unwrap_iterB8ue170006INS_11__wrap_iterIP6PlayerEENS_18__unwrap_iter_implIS4_Lb1EEELi0EEEDTclsrT0_8__unwrapclsr3stdE7declvalIT_EEEES8_, symObjAddr: 0xA804, symBinAddr: 0x10000B6B0, symSize: 0x2C }
  - { offsetInCU: 0xED4C, offset: 0xED4C, size: 0x8, addend: 0x0, symName: __ZNSt3__135__check_strict_weak_ordering_sortedB8ue170006IP6PlayerNS_6__lessIvvEEEEvT_S5_RT0_, symObjAddr: 0xA830, symBinAddr: 0x10000B6DC, symSize: 0x18 }
  - { offsetInCU: 0xEDA2, offset: 0xEDA2, size: 0x8, addend: 0x0, symName: __ZNSt3__17__log2iB8ue170006IlEET_S1_, symObjAddr: 0xA848, symBinAddr: 0x10000B6F4, symSize: 0x54 }
  - { offsetInCU: 0xEDD9, offset: 0xEDD9, size: 0x8, addend: 0x0, symName: __ZNSt3__112__libcpp_clzB8ue170006Em, symObjAddr: 0xAD24, symBinAddr: 0x10000BBD0, symSize: 0x1C }
  - { offsetInCU: 0xEEEF, offset: 0xEEEF, size: 0x8, addend: 0x0, symName: __ZNSt3__124__sort3_maybe_branchlessB8ue170006INS_17_ClassicAlgPolicyERNS_6__lessIvvEEP6PlayerEENS_9enable_ifIXntsr21__use_branchless_sortIT0_T1_EE5valueEvE4typeES9_S9_S9_S8_, symObjAddr: 0xADA8, symBinAddr: 0x10000BC54, symSize: 0x3C }
  - { offsetInCU: 0xEF60, offset: 0xEF60, size: 0x8, addend: 0x0, symName: __ZNSt3__124__sort4_maybe_branchlessB8ue170006INS_17_ClassicAlgPolicyERNS_6__lessIvvEEP6PlayerEENS_9enable_ifIXntsr21__use_branchless_sortIT0_T1_EE5valueEvE4typeES9_S9_S9_S9_S8_, symObjAddr: 0xADE4, symBinAddr: 0x10000BC90, symSize: 0x44 }
  - { offsetInCU: 0xEFDF, offset: 0xEFDF, size: 0x8, addend: 0x0, symName: __ZNSt3__124__sort5_maybe_branchlessB8ue170006INS_17_ClassicAlgPolicyERNS_6__lessIvvEEP6PlayerEENS_9enable_ifIXntsr21__use_branchless_sortIT0_T1_EE5valueEvE4typeES9_S9_S9_S9_S9_S8_, symObjAddr: 0xAE28, symBinAddr: 0x10000BCD4, symSize: 0x4C }
  - { offsetInCU: 0xF06C, offset: 0xF06C, size: 0x8, addend: 0x0, symName: __ZNSt3__116__insertion_sortB8ue170006INS_17_ClassicAlgPolicyERNS_6__lessIvvEEP6PlayerEEvT1_S7_T0_, symObjAddr: 0xAE74, symBinAddr: 0x10000BD20, symSize: 0x1A4 }
  - { offsetInCU: 0xF11F, offset: 0xF11F, size: 0x8, addend: 0x0, symName: __ZNSt3__114__partial_sortB8ue170006INS_17_ClassicAlgPolicyERNS_6__lessIvvEEP6PlayerS6_EET1_S7_S7_T2_RT0_, symObjAddr: 0xB18C, symBinAddr: 0x10000C038, symSize: 0x94 }
  - { offsetInCU: 0xF1A7, offset: 0xF1A7, size: 0x8, addend: 0x0, symName: __ZNSt3__17__sort3B8ue170006INS_17_ClassicAlgPolicyERNS_6__lessIvvEEP6PlayerEEjT1_S7_S7_T0_, symObjAddr: 0xB220, symBinAddr: 0x10000C0CC, symSize: 0x144 }
  - { offsetInCU: 0xF226, offset: 0xF226, size: 0x8, addend: 0x0, symName: __ZNSt3__19iter_swapB8ue170006IP6PlayerS2_EEvT_T0_, symObjAddr: 0xC00C, symBinAddr: 0x10000CEB8, symSize: 0x2C }
  - { offsetInCU: 0xF26E, offset: 0xF26E, size: 0x8, addend: 0x0, symName: __ZNSt3__14swapB8ue170006I6PlayerEENS_9enable_ifIXaasr21is_move_constructibleIT_EE5valuesr18is_move_assignableIS3_EE5valueEvE4typeERS3_S6_, symObjAddr: 0xC038, symBinAddr: 0x10000CEE4, symSize: 0x50 }
  - { offsetInCU: 0xF2BF, offset: 0xF2BF, size: 0x8, addend: 0x0, symName: __ZNSt3__17__sort4B8ue170006INS_17_ClassicAlgPolicyERNS_6__lessIvvEEP6PlayerEEvT1_S7_S7_S7_T0_, symObjAddr: 0xC358, symBinAddr: 0x10000D204, symSize: 0xB8 }
  - { offsetInCU: 0xF33A, offset: 0xF33A, size: 0x8, addend: 0x0, symName: __ZNSt3__17__sort5B8ue170006INS_17_ClassicAlgPolicyERNS_6__lessIvvEEP6PlayerEEvT1_S7_S7_S7_S7_T0_, symObjAddr: 0xC410, symBinAddr: 0x10000D2BC, symSize: 0xE8 }
  - { offsetInCU: 0xF3E7, offset: 0xF3E7, size: 0x8, addend: 0x0, symName: __ZNSt3__123__debug_randomize_rangeB8ue170006INS_17_ClassicAlgPolicyEP6PlayerS3_EEvT0_T1_, symObjAddr: 0xC53C, symBinAddr: 0x10000D3E8, symSize: 0x14 }
  - { offsetInCU: 0xF438, offset: 0xF438, size: 0x8, addend: 0x0, symName: __ZNSt3__119__partial_sort_implB8ue170006INS_17_ClassicAlgPolicyERNS_6__lessIvvEEP6PlayerS6_EET1_S7_S7_T2_OT0_, symObjAddr: 0xC550, symBinAddr: 0x10000D3FC, symSize: 0x110 }
  - { offsetInCU: 0xF4CE, offset: 0xF4CE, size: 0x8, addend: 0x0, symName: __ZNSt3__111__make_heapB8ue170006INS_17_ClassicAlgPolicyERNS_6__lessIvvEEP6PlayerEEvT1_S7_OT0_, symObjAddr: 0xC660, symBinAddr: 0x10000D50C, symSize: 0xC0 }
  - { offsetInCU: 0xF570, offset: 0xF570, size: 0x8, addend: 0x0, symName: __ZNSt3__111__sort_heapB8ue170006INS_17_ClassicAlgPolicyERNS_6__lessIvvEEP6PlayerEEvT1_S7_OT0_, symObjAddr: 0xC99C, symBinAddr: 0x10000D848, symSize: 0xA8 }
  - { offsetInCU: 0xF612, offset: 0xF612, size: 0x8, addend: 0x0, symName: __ZNSt3__110__pop_heapB8ue170006INS_17_ClassicAlgPolicyENS_6__lessIvvEEP6PlayerEEvT1_S6_RT0_NS_15iterator_traitsIS6_E15difference_typeE, symObjAddr: 0xCA44, symBinAddr: 0x10000D8F0, symSize: 0x148 }
  - { offsetInCU: 0xF6BA, offset: 0xF6BA, size: 0x8, addend: 0x0, symName: __ZNSt3__19__sift_upB8ue170006INS_17_ClassicAlgPolicyERNS_6__lessIvvEEP6PlayerEEvT1_S7_OT0_NS_15iterator_traitsIS7_E15difference_typeE, symObjAddr: 0xCC94, symBinAddr: 0x10000DB40, symSize: 0x170 }
  - { offsetInCU: 0xF75A, offset: 0xF75A, size: 0x8, addend: 0x0, symName: __ZNSt3__122__populate_left_bitsetB8ue170006IRNS_6__lessIvvEEP6PlayerS4_EEvT0_T_RT1_Ry, symObjAddr: 0xCE04, symBinAddr: 0x10000DCB0, symSize: 0xA8 }
  - { offsetInCU: 0xF815, offset: 0xF815, size: 0x8, addend: 0x0, symName: __ZNSt3__123__populate_right_bitsetB8ue170006IRNS_6__lessIvvEEP6PlayerS4_EEvT0_T_RT1_Ry, symObjAddr: 0xCEAC, symBinAddr: 0x10000DD58, symSize: 0xA0 }
  - { offsetInCU: 0xF8D0, offset: 0xF8D0, size: 0x8, addend: 0x0, symName: __ZNSt3__117__swap_bitmap_posB8ue170006INS_17_ClassicAlgPolicyEP6PlayerEEvT0_S4_RyS5_, symObjAddr: 0xCF4C, symBinAddr: 0x10000DDF8, symSize: 0x104 }
  - { offsetInCU: 0xF971, offset: 0xF971, size: 0x8, addend: 0x0, symName: __ZNSt3__133__bitset_partition_partial_blocksB8ue170006INS_17_ClassicAlgPolicyERNS_6__lessIvvEEP6PlayerS5_EEvRT1_S8_T0_RT2_RySC_, symObjAddr: 0xD050, symBinAddr: 0x10000DEFC, symSize: 0x2F0 }
  - { offsetInCU: 0xFAF2, offset: 0xFAF2, size: 0x8, addend: 0x0, symName: __ZNSt3__19make_pairB8ue170006IRP6PlayerRbEENS_4pairINS_18__unwrap_ref_decayIT_E4typeENS6_IT0_E4typeEEEOS7_OSA_, symObjAddr: 0xD528, symBinAddr: 0x10000E3D4, symSize: 0x38 }
  - { offsetInCU: 0xFB41, offset: 0xFB41, size: 0x8, addend: 0x0, symName: __ZNSt3__112__libcpp_ctzB8ue170006Ey, symObjAddr: 0xD560, symBinAddr: 0x10000E40C, symSize: 0x20 }
  - { offsetInCU: 0xFB6D, offset: 0xFB6D, size: 0x8, addend: 0x0, symName: __ZNSt3__113__libcpp_blsrB8ue170006Ey, symObjAddr: 0xD580, symBinAddr: 0x10000E42C, symSize: 0x2C }
  - { offsetInCU: 0xFB99, offset: 0xFB99, size: 0x8, addend: 0x0, symName: __ZNSt3__112__libcpp_clzB8ue170006Ey, symObjAddr: 0xD5E0, symBinAddr: 0x10000E48C, symSize: 0x1C }
  - { offsetInCU: 0xFCEC, offset: 0xFCEC, size: 0x8, addend: 0x0, symName: __ZNSt3__112__to_addressB8ue170006INS_11__wrap_iterIP6PlayerEEvEEu7__decayIDTclsr19__to_address_helperIT_EE6__callclsr3stdE7declvalIRKS5_EEEEES7_, symObjAddr: 0xD698, symBinAddr: 0x10000E544, symSize: 0x24 }
  - { offsetInCU: 0x103A7, offset: 0x103A7, size: 0x8, addend: 0x0, symName: __ZSt28__throw_bad_array_new_lengthB8ue170006v, symObjAddr: 0x6028, symBinAddr: 0x100006ED4, symSize: 0x34 }
  - { offsetInCU: 0x1160F, offset: 0x1160F, size: 0x8, addend: 0x0, symName: __ZN10MatamStory9playRoundEv, symObjAddr: 0x1E28, symBinAddr: 0x100002CD4, symSize: 0x248 }
  - { offsetInCU: 0x11635, offset: 0x11635, size: 0x8, addend: 0x0, symName: __ZZN10MatamStory9playRoundEvE3its, symObjAddr: 0x6B468, symBinAddr: 0x100020000, symSize: 0x0 }
  - { offsetInCU: 0x1171F, offset: 0x1171F, size: 0x8, addend: 0x0, symName: __ZNSt3__16vectorI6PlayerNS_9allocatorIS1_EEE26__swap_out_circular_bufferERNS_14__split_bufferIS1_RS3_EE, symObjAddr: 0x594C, symBinAddr: 0x1000067F8, symSize: 0x110 }
  - { offsetInCU: 0x1190D, offset: 0x1190D, size: 0x8, addend: 0x0, symName: __ZNSt3__16vectorINS_10unique_ptrI5EventNS_14default_deleteIS2_EEEENS_9allocatorIS5_EEE26__swap_out_circular_bufferERNS_14__split_bufferIS5_RS7_EE, symObjAddr: 0x79C8, symBinAddr: 0x100008874, symSize: 0x110 }
  - { offsetInCU: 0x13FF8, offset: 0x13FF8, size: 0x8, addend: 0x0, symName: __ZN10MatamStoryC2ERNSt3__113basic_istreamIcNS0_11char_traitsIcEEEES5_, symObjAddr: 0x0, symBinAddr: 0x100000EAC, symSize: 0xB10 }
  - { offsetInCU: 0x1416C, offset: 0x1416C, size: 0x8, addend: 0x0, symName: __ZNSt3__16vectorI6PlayerNS_9allocatorIS1_EEEC1B8ue170006Ev, symObjAddr: 0xB10, symBinAddr: 0x1000019BC, symSize: 0x2C }
  - { offsetInCU: 0x14196, offset: 0x14196, size: 0x8, addend: 0x0, symName: __ZNSt3__16vectorINS_10unique_ptrI5EventNS_14default_deleteIS2_EEEENS_9allocatorIS5_EEEC1B8ue170006Ev, symObjAddr: 0xB3C, symBinAddr: 0x1000019E8, symSize: 0x2C }
  - { offsetInCU: 0x141C0, offset: 0x141C0, size: 0x8, addend: 0x0, symName: __ZNKSt3__19basic_iosIcNS_11char_traitsIcEEEntB8ue170006Ev, symObjAddr: 0xB68, symBinAddr: 0x100001A14, symSize: 0x28 }
  - { offsetInCU: 0x141E6, offset: 0x141E6, size: 0x8, addend: 0x0, symName: __ZNSt16invalid_argumentC1B8ue170006EPKc, symObjAddr: 0xB90, symBinAddr: 0x100001A3C, symSize: 0x34 }
  - { offsetInCU: 0x1421E, offset: 0x1421E, size: 0x8, addend: 0x0, symName: __ZNSt3__112basic_stringIcNS_11char_traitsIcEENS_9allocatorIcEEEC1B8ue170006Ev, symObjAddr: 0xBC4, symBinAddr: 0x100001A70, symSize: 0x2C }
  - { offsetInCU: 0x14248, offset: 0x14248, size: 0x8, addend: 0x0, symName: __ZNKSt3__19basic_iosIcNS_11char_traitsIcEEEcvbB8ue170006Ev, symObjAddr: 0xC4C, symBinAddr: 0x100001AF8, symSize: 0x2C }
  - { offsetInCU: 0x1426E, offset: 0x1426E, size: 0x8, addend: 0x0, symName: __ZNSt3__119basic_istringstreamIcNS_11char_traitsIcEENS_9allocatorIcEEEC1B8ue170006ERKNS_12basic_stringIcS2_S4_EEj, symObjAddr: 0xC78, symBinAddr: 0x100001B24, symSize: 0xFC }
  - { offsetInCU: 0x142B6, offset: 0x142B6, size: 0x8, addend: 0x0, symName: __ZNSt3__113basic_ostreamIcNS_11char_traitsIcEEElsB8ue170006EPFRS3_S4_E, symObjAddr: 0x10D8, symBinAddr: 0x100001F84, symSize: 0x2C }
  - { offsetInCU: 0x142EA, offset: 0x142EA, size: 0x8, addend: 0x0, symName: __ZNSt3__110shared_ptrI3JobEC1B8ue170006Ev, symObjAddr: 0x115C, symBinAddr: 0x100002008, symSize: 0x2C }
  - { offsetInCU: 0x14314, offset: 0x14314, size: 0x8, addend: 0x0, symName: __ZNSt3__110shared_ptrI9CharacterEC1B8ue170006Ev, symObjAddr: 0x1188, symBinAddr: 0x100002034, symSize: 0x2C }
  - { offsetInCU: 0x1433E, offset: 0x1433E, size: 0x8, addend: 0x0, symName: __ZNSt3__110shared_ptrI3JobEaSB8ue170006EOS2_, symObjAddr: 0x11B4, symBinAddr: 0x100002060, symSize: 0x50 }
  - { offsetInCU: 0x14373, offset: 0x14373, size: 0x8, addend: 0x0, symName: __ZNSt3__110shared_ptrI3JobED1B8ue170006Ev, symObjAddr: 0x1204, symBinAddr: 0x1000020B0, symSize: 0x2C }
  - { offsetInCU: 0x1439D, offset: 0x1439D, size: 0x8, addend: 0x0, symName: __ZNSt3__110shared_ptrI9CharacterEaSB8ue170006EOS2_, symObjAddr: 0x1230, symBinAddr: 0x1000020DC, symSize: 0x50 }
  - { offsetInCU: 0x143D2, offset: 0x143D2, size: 0x8, addend: 0x0, symName: __ZNSt3__110shared_ptrI9CharacterED1B8ue170006Ev, symObjAddr: 0x1280, symBinAddr: 0x10000212C, symSize: 0x2C }
  - { offsetInCU: 0x14401, offset: 0x14401, size: 0x8, addend: 0x0, symName: __ZNSt3__16vectorI6PlayerNS_9allocatorIS1_EEE12emplace_backIJRNS_12basic_stringIcNS_11char_traitsIcEENS2_IcEEEERNS_10shared_ptrI3JobEERNSC_I9CharacterEEEEERS1_DpOT_, symObjAddr: 0x12B8, symBinAddr: 0x100002164, symSize: 0x8C }
  - { offsetInCU: 0x14470, offset: 0x14470, size: 0x8, addend: 0x0, symName: __ZNSt3__119basic_istringstreamIcNS_11char_traitsIcEENS_9allocatorIcEEED1Ev, symObjAddr: 0x1344, symBinAddr: 0x1000021F0, symSize: 0x40 }
  - { offsetInCU: 0x1449D, offset: 0x1449D, size: 0x8, addend: 0x0, symName: __ZNSt3__16vectorINS_10unique_ptrI5EventNS_14default_deleteIS2_EEEENS_9allocatorIS5_EEE12emplace_backIJNS1_I9EncounterNS3_ISA_EEEEEEERS5_DpOT_, symObjAddr: 0x1430, symBinAddr: 0x1000022DC, symSize: 0x74 }
  - { offsetInCU: 0x144DF, offset: 0x144DF, size: 0x8, addend: 0x0, symName: __ZNSt3__110unique_ptrI9EncounterNS_14default_deleteIS1_EEED1B8ue170006Ev, symObjAddr: 0x1560, symBinAddr: 0x10000240C, symSize: 0x2C }
  - { offsetInCU: 0x14509, offset: 0x14509, size: 0x8, addend: 0x0, symName: __ZNSt3__110unique_ptrI7MonsterNS_14default_deleteIS1_EEED1B8ue170006Ev, symObjAddr: 0x158C, symBinAddr: 0x100002438, symSize: 0x2C }
  - { offsetInCU: 0x14533, offset: 0x14533, size: 0x8, addend: 0x0, symName: __ZNSt3__16vectorINS_10unique_ptrI5EventNS_14default_deleteIS2_EEEENS_9allocatorIS5_EEE12emplace_backIJNS1_I15PotionsMerchantNS3_ISA_EEEEEEERS5_DpOT_, symObjAddr: 0x15B8, symBinAddr: 0x100002464, symSize: 0x74 }
  - { offsetInCU: 0x14575, offset: 0x14575, size: 0x8, addend: 0x0, symName: __ZNSt3__110unique_ptrI15PotionsMerchantNS_14default_deleteIS1_EEED1B8ue170006Ev, symObjAddr: 0x16A4, symBinAddr: 0x100002550, symSize: 0x2C }
  - { offsetInCU: 0x1459F, offset: 0x1459F, size: 0x8, addend: 0x0, symName: __ZNSt3__16vectorINS_10unique_ptrI5EventNS_14default_deleteIS2_EEEENS_9allocatorIS5_EEE12emplace_backIJNS1_I12SolarEclipseNS3_ISA_EEEEEEERS5_DpOT_, symObjAddr: 0x16D0, symBinAddr: 0x10000257C, symSize: 0x74 }
  - { offsetInCU: 0x145E1, offset: 0x145E1, size: 0x8, addend: 0x0, symName: __ZNSt3__110unique_ptrI12SolarEclipseNS_14default_deleteIS1_EEED1B8ue170006Ev, symObjAddr: 0x17BC, symBinAddr: 0x100002668, symSize: 0x2C }
  - { offsetInCU: 0x1460B, offset: 0x1460B, size: 0x8, addend: 0x0, symName: __ZNSt3__110unique_ptrI7MonsterNS_14default_deleteIS1_EEEC1B8ue170006ILb1EvEEPS1_, symObjAddr: 0x17E8, symBinAddr: 0x100002694, symSize: 0x34 }
  - { offsetInCU: 0x1464E, offset: 0x1464E, size: 0x8, addend: 0x0, symName: __ZNSt3__16vectorINS_10unique_ptrI5EventNS_14default_deleteIS2_EEEENS_9allocatorIS5_EEED1B8ue170006Ev, symObjAddr: 0x181C, symBinAddr: 0x1000026C8, symSize: 0x2C }
  - { offsetInCU: 0x14678, offset: 0x14678, size: 0x8, addend: 0x0, symName: __ZNSt3__16vectorI6PlayerNS_9allocatorIS1_EEED1B8ue170006Ev, symObjAddr: 0x1848, symBinAddr: 0x1000026F4, symSize: 0x2C }
  - { offsetInCU: 0x146A2, offset: 0x146A2, size: 0x8, addend: 0x0, symName: __ZN10MatamStoryC1ERNSt3__113basic_istreamIcNS0_11char_traitsIcEEEES5_, symObjAddr: 0x1874, symBinAddr: 0x100002720, symSize: 0x3C }
  - { offsetInCU: 0x146EA, offset: 0x146EA, size: 0x8, addend: 0x0, symName: __ZN10MatamStory10handlePackERNSt3__119basic_istringstreamIcNS0_11char_traitsIcEENS0_9allocatorIcEEEEP4Pack, symObjAddr: 0x18B0, symBinAddr: 0x10000275C, symSize: 0x228 }
  - { offsetInCU: 0x1477D, offset: 0x1477D, size: 0x8, addend: 0x0, symName: __ZN10MatamStory8playTurnER6PlayerRNSt3__110unique_ptrI5EventNS2_14default_deleteIS4_EEEE, symObjAddr: 0x1D0C, symBinAddr: 0x100002BB8, symSize: 0xCC }
  - { offsetInCU: 0x147C1, offset: 0x147C1, size: 0x8, addend: 0x0, symName: __ZNKSt3__110unique_ptrI5EventNS_14default_deleteIS1_EEEdeB8ue170006Ev, symObjAddr: 0x1DD8, symBinAddr: 0x100002C84, symSize: 0x28 }
  - { offsetInCU: 0x147E7, offset: 0x147E7, size: 0x8, addend: 0x0, symName: __ZNKSt3__110unique_ptrI5EventNS_14default_deleteIS1_EEEptB8ue170006Ev, symObjAddr: 0x1E00, symBinAddr: 0x100002CAC, symSize: 0x28 }
  - { offsetInCU: 0x1480D, offset: 0x1480D, size: 0x8, addend: 0x0, symName: __ZNSt3__16vectorINS_10unique_ptrI5EventNS_14default_deleteIS2_EEEENS_9allocatorIS5_EEE5beginB8ue170006Ev, symObjAddr: 0x2070, symBinAddr: 0x100002F1C, symSize: 0x30 }
  - { offsetInCU: 0x14835, offset: 0x14835, size: 0x8, addend: 0x0, symName: __ZNSt3__16vectorI6PlayerNS_9allocatorIS1_EEE5beginB8ue170006Ev, symObjAddr: 0x20A0, symBinAddr: 0x100002F4C, symSize: 0x30 }
  - { offsetInCU: 0x1485D, offset: 0x1485D, size: 0x8, addend: 0x0, symName: __ZNSt3__16vectorI6PlayerNS_9allocatorIS1_EEE3endB8ue170006Ev, symObjAddr: 0x2104, symBinAddr: 0x100002FB0, symSize: 0x30 }
  - { offsetInCU: 0x14885, offset: 0x14885, size: 0x8, addend: 0x0, symName: __ZNKSt3__111__wrap_iterIP6PlayerEptB8ue170006Ev, symObjAddr: 0x2134, symBinAddr: 0x100002FE0, symSize: 0x28 }
  - { offsetInCU: 0x148AB, offset: 0x148AB, size: 0x8, addend: 0x0, symName: __ZNKSt3__111__wrap_iterIP6PlayerEdeB8ue170006Ev, symObjAddr: 0x215C, symBinAddr: 0x100003008, symSize: 0x18 }
  - { offsetInCU: 0x148D1, offset: 0x148D1, size: 0x8, addend: 0x0, symName: __ZNKSt3__111__wrap_iterIPNS_10unique_ptrI5EventNS_14default_deleteIS2_EEEEEdeB8ue170006Ev, symObjAddr: 0x2174, symBinAddr: 0x100003020, symSize: 0x18 }
  - { offsetInCU: 0x148F7, offset: 0x148F7, size: 0x8, addend: 0x0, symName: __ZNSt3__111__wrap_iterIPNS_10unique_ptrI5EventNS_14default_deleteIS2_EEEEEppB8ue170006Ev, symObjAddr: 0x218C, symBinAddr: 0x100003038, symSize: 0x20 }
  - { offsetInCU: 0x1491D, offset: 0x1491D, size: 0x8, addend: 0x0, symName: __ZNSt3__16vectorINS_10unique_ptrI5EventNS_14default_deleteIS2_EEEENS_9allocatorIS5_EEE3endB8ue170006Ev, symObjAddr: 0x21F4, symBinAddr: 0x1000030A0, symSize: 0x30 }
  - { offsetInCU: 0x14945, offset: 0x14945, size: 0x8, addend: 0x0, symName: __ZNSt3__111__wrap_iterIP6PlayerEppB8ue170006Ev, symObjAddr: 0x2224, symBinAddr: 0x1000030D0, symSize: 0x20 }
  - { offsetInCU: 0x1496B, offset: 0x1496B, size: 0x8, addend: 0x0, symName: __ZNSt3__16vectorI6PlayerNS_9allocatorIS1_EEEC1ERKS4_, symObjAddr: 0x2244, symBinAddr: 0x1000030F0, symSize: 0x34 }
  - { offsetInCU: 0x149A6, offset: 0x149A6, size: 0x8, addend: 0x0, symName: __ZNKSt3__16vectorI6PlayerNS_9allocatorIS1_EEE4sizeB8ue170006Ev, symObjAddr: 0x22B4, symBinAddr: 0x100003160, symSize: 0x28 }
  - { offsetInCU: 0x149CC, offset: 0x149CC, size: 0x8, addend: 0x0, symName: __ZNSt3__16vectorI6PlayerNS_9allocatorIS1_EEEixB8ue170006Em, symObjAddr: 0x22DC, symBinAddr: 0x100003188, symSize: 0x2C }
  - { offsetInCU: 0x14A03, offset: 0x14A03, size: 0x8, addend: 0x0, symName: __ZNK10MatamStory10isGameOverEv, symObjAddr: 0x2308, symBinAddr: 0x1000031B4, symSize: 0x150 }
  - { offsetInCU: 0x14A71, offset: 0x14A71, size: 0x8, addend: 0x0, symName: __ZNKSt3__16vectorI6PlayerNS_9allocatorIS1_EEE5beginB8ue170006Ev, symObjAddr: 0x2458, symBinAddr: 0x100003304, symSize: 0x30 }
  - { offsetInCU: 0x14A99, offset: 0x14A99, size: 0x8, addend: 0x0, symName: __ZNKSt3__16vectorI6PlayerNS_9allocatorIS1_EEE3endB8ue170006Ev, symObjAddr: 0x24BC, symBinAddr: 0x100003368, symSize: 0x30 }
  - { offsetInCU: 0x14AC1, offset: 0x14AC1, size: 0x8, addend: 0x0, symName: __ZNKSt3__111__wrap_iterIPK6PlayerEptB8ue170006Ev, symObjAddr: 0x24EC, symBinAddr: 0x100003398, symSize: 0x28 }
  - { offsetInCU: 0x14AE7, offset: 0x14AE7, size: 0x8, addend: 0x0, symName: __ZNSt3__111__wrap_iterIPK6PlayerEppB8ue170006Ev, symObjAddr: 0x2514, symBinAddr: 0x1000033C0, symSize: 0x20 }
  - { offsetInCU: 0x14B0D, offset: 0x14B0D, size: 0x8, addend: 0x0, symName: __ZN10MatamStory4playEv, symObjAddr: 0x2534, symBinAddr: 0x1000033E0, symSize: 0x118 }
  - { offsetInCU: 0x14B51, offset: 0x14B51, size: 0x8, addend: 0x0, symName: __ZNSt3__111__wrap_iterIPK6PlayerEC1B8ue170006Ev, symObjAddr: 0x264C, symBinAddr: 0x1000034F8, symSize: 0x2C }
  - { offsetInCU: 0x14B85, offset: 0x14B85, size: 0x8, addend: 0x0, symName: __ZNSt3__111__wrap_iterIPK6PlayerEC1B8ue170006IPS1_EERKNS0_IT_EEPNS_9enable_ifIXsr14is_convertibleIS7_S3_EE5valueEvE4typeE, symObjAddr: 0x2678, symBinAddr: 0x100003524, symSize: 0x3C }
  - { offsetInCU: 0x14BD1, offset: 0x14BD1, size: 0x8, addend: 0x0, symName: __ZNKSt3__111__wrap_iterIPK6PlayerEdeB8ue170006Ev, symObjAddr: 0x26E8, symBinAddr: 0x100003594, symSize: 0x18 }
  - { offsetInCU: 0x14BF7, offset: 0x14BF7, size: 0x8, addend: 0x0, symName: __ZN10MatamStory9hasWinnerEv, symObjAddr: 0x2700, symBinAddr: 0x1000035AC, symSize: 0x58 }
  - { offsetInCU: 0x14C1F, offset: 0x14C1F, size: 0x8, addend: 0x0, symName: __ZN10MatamStory9getWinnerEv, symObjAddr: 0x2758, symBinAddr: 0x100003604, symSize: 0xB4 }
  - { offsetInCU: 0x14C63, offset: 0x14C63, size: 0x8, addend: 0x0, symName: __ZNSt16invalid_argumentC2B8ue170006EPKc, symObjAddr: 0x280C, symBinAddr: 0x1000036B8, symSize: 0x4C }
  - { offsetInCU: 0x14C9B, offset: 0x14C9B, size: 0x8, addend: 0x0, symName: __ZNSt3__110shared_ptrI3JobEC2B8ue170006Ev, symObjAddr: 0x2858, symBinAddr: 0x100003704, symSize: 0x1C }
  - { offsetInCU: 0x14CC5, offset: 0x14CC5, size: 0x8, addend: 0x0, symName: __ZNSt3__110shared_ptrI9CharacterEC2B8ue170006Ev, symObjAddr: 0x2874, symBinAddr: 0x100003720, symSize: 0x1C }
  - { offsetInCU: 0x14CEF, offset: 0x14CEF, size: 0x8, addend: 0x0, symName: __ZNSt3__119basic_istringstreamIcNS_11char_traitsIcEENS_9allocatorIcEEED2Ev, symObjAddr: 0x2890, symBinAddr: 0x10000373C, symSize: 0x64 }
  - { offsetInCU: 0x14D29, offset: 0x14D29, size: 0x8, addend: 0x0, symName: __ZTv0_n24_NSt3__119basic_istringstreamIcNS_11char_traitsIcEENS_9allocatorIcEEED1Ev, symObjAddr: 0x28F4, symBinAddr: 0x1000037A0, symSize: 0x28 }
  - { offsetInCU: 0x14D45, offset: 0x14D45, size: 0x8, addend: 0x0, symName: __ZNSt3__115basic_stringbufIcNS_11char_traitsIcEENS_9allocatorIcEEED1Ev, symObjAddr: 0x291C, symBinAddr: 0x1000037C8, symSize: 0x2C }
  - { offsetInCU: 0x14D72, offset: 0x14D72, size: 0x8, addend: 0x0, symName: __ZNSt3__115basic_stringbufIcNS_11char_traitsIcEENS_9allocatorIcEEED2Ev, symObjAddr: 0x2948, symBinAddr: 0x1000037F4, symSize: 0x48 }
  - { offsetInCU: 0x14D9F, offset: 0x14D9F, size: 0x8, addend: 0x0, symName: __ZNKSt3__111__wrap_iterIP6PlayerE4baseB8ue170006Ev, symObjAddr: 0x29D8, symBinAddr: 0x100003884, symSize: 0x18 }
  - { offsetInCU: 0x14DC5, offset: 0x14DC5, size: 0x8, addend: 0x0, symName: __ZNKSt3__111__wrap_iterIPNS_10unique_ptrI5EventNS_14default_deleteIS2_EEEEE4baseB8ue170006Ev, symObjAddr: 0x2A04, symBinAddr: 0x1000038B0, symSize: 0x18 }
  - { offsetInCU: 0x14DEB, offset: 0x14DEB, size: 0x8, addend: 0x0, symName: __ZNKSt3__111__wrap_iterIPK6PlayerE4baseB8ue170006Ev, symObjAddr: 0x2A64, symBinAddr: 0x100003910, symSize: 0x18 }
  - { offsetInCU: 0x14E11, offset: 0x14E11, size: 0x8, addend: 0x0, symName: __ZNSt3__111__wrap_iterIPK6PlayerEC2B8ue170006Ev, symObjAddr: 0x2A90, symBinAddr: 0x10000393C, symSize: 0x18 }
  - { offsetInCU: 0x14E3B, offset: 0x14E3B, size: 0x8, addend: 0x0, symName: __ZNSt3__111__wrap_iterIPK6PlayerEC2B8ue170006IPS1_EERKNS0_IT_EEPNS_9enable_ifIXsr14is_convertibleIS7_S3_EE5valueEvE4typeE, symObjAddr: 0x2AA8, symBinAddr: 0x100003954, symSize: 0x40 }
  - { offsetInCU: 0x14E87, offset: 0x14E87, size: 0x8, addend: 0x0, symName: __ZNSt3__16vectorI6PlayerNS_9allocatorIS1_EEEC2B8ue170006Ev, symObjAddr: 0x2B30, symBinAddr: 0x1000039DC, symSize: 0x4C }
  - { offsetInCU: 0x14EBB, offset: 0x14EBB, size: 0x8, addend: 0x0, symName: __ZNSt3__117__compressed_pairIP6PlayerNS_9allocatorIS1_EEEC1B8ue170006IDnNS_18__default_init_tagEEEOT_OT0_, symObjAddr: 0x2B7C, symBinAddr: 0x100003A28, symSize: 0x3C }
  - { offsetInCU: 0x14F13, offset: 0x14F13, size: 0x8, addend: 0x0, symName: __ZNSt3__117__compressed_pairIP6PlayerNS_9allocatorIS1_EEEC2B8ue170006IDnNS_18__default_init_tagEEEOT_OT0_, symObjAddr: 0x2BB8, symBinAddr: 0x100003A64, symSize: 0x40 }
  - { offsetInCU: 0x14F6B, offset: 0x14F6B, size: 0x8, addend: 0x0, symName: __ZNSt3__122__compressed_pair_elemIP6PlayerLi0ELb0EEC2B8ue170006IDnvEEOT_, symObjAddr: 0x2BF8, symBinAddr: 0x100003AA4, symSize: 0x1C }
  - { offsetInCU: 0x14FAD, offset: 0x14FAD, size: 0x8, addend: 0x0, symName: __ZNSt3__122__compressed_pair_elemINS_9allocatorI6PlayerEELi1ELb1EEC2B8ue170006ENS_18__default_init_tagE, symObjAddr: 0x2C14, symBinAddr: 0x100003AC0, symSize: 0x2C }
  - { offsetInCU: 0x14FE2, offset: 0x14FE2, size: 0x8, addend: 0x0, symName: __ZNSt3__19allocatorI6PlayerEC2B8ue170006Ev, symObjAddr: 0x2C40, symBinAddr: 0x100003AEC, symSize: 0x2C }
  - { offsetInCU: 0x1500C, offset: 0x1500C, size: 0x8, addend: 0x0, symName: __ZNSt3__116__non_trivial_ifILb1ENS_9allocatorI6PlayerEEEC2B8ue170006Ev, symObjAddr: 0x2C6C, symBinAddr: 0x100003B18, symSize: 0x14 }
  - { offsetInCU: 0x15036, offset: 0x15036, size: 0x8, addend: 0x0, symName: __ZNSt3__16vectorINS_10unique_ptrI5EventNS_14default_deleteIS2_EEEENS_9allocatorIS5_EEEC2B8ue170006Ev, symObjAddr: 0x2C80, symBinAddr: 0x100003B2C, symSize: 0x4C }
  - { offsetInCU: 0x15060, offset: 0x15060, size: 0x8, addend: 0x0, symName: __ZNSt3__117__compressed_pairIPNS_10unique_ptrI5EventNS_14default_deleteIS2_EEEENS_9allocatorIS5_EEEC1B8ue170006IDnNS_18__default_init_tagEEEOT_OT0_, symObjAddr: 0x2CCC, symBinAddr: 0x100003B78, symSize: 0x3C }
  - { offsetInCU: 0x150B8, offset: 0x150B8, size: 0x8, addend: 0x0, symName: __ZNSt3__117__compressed_pairIPNS_10unique_ptrI5EventNS_14default_deleteIS2_EEEENS_9allocatorIS5_EEEC2B8ue170006IDnNS_18__default_init_tagEEEOT_OT0_, symObjAddr: 0x2D08, symBinAddr: 0x100003BB4, symSize: 0x40 }
  - { offsetInCU: 0x15110, offset: 0x15110, size: 0x8, addend: 0x0, symName: __ZNSt3__122__compressed_pair_elemIPNS_10unique_ptrI5EventNS_14default_deleteIS2_EEEELi0ELb0EEC2B8ue170006IDnvEEOT_, symObjAddr: 0x2D48, symBinAddr: 0x100003BF4, symSize: 0x1C }
  - { offsetInCU: 0x15152, offset: 0x15152, size: 0x8, addend: 0x0, symName: __ZNSt3__122__compressed_pair_elemINS_9allocatorINS_10unique_ptrI5EventNS_14default_deleteIS3_EEEEEELi1ELb1EEC2B8ue170006ENS_18__default_init_tagE, symObjAddr: 0x2D64, symBinAddr: 0x100003C10, symSize: 0x2C }
  - { offsetInCU: 0x15187, offset: 0x15187, size: 0x8, addend: 0x0, symName: __ZNSt3__19allocatorINS_10unique_ptrI5EventNS_14default_deleteIS2_EEEEEC2B8ue170006Ev, symObjAddr: 0x2D90, symBinAddr: 0x100003C3C, symSize: 0x2C }
  - { offsetInCU: 0x151B1, offset: 0x151B1, size: 0x8, addend: 0x0, symName: __ZNSt3__116__non_trivial_ifILb1ENS_9allocatorINS_10unique_ptrI5EventNS_14default_deleteIS3_EEEEEEEC2B8ue170006Ev, symObjAddr: 0x2DBC, symBinAddr: 0x100003C68, symSize: 0x14 }
  - { offsetInCU: 0x151DB, offset: 0x151DB, size: 0x8, addend: 0x0, symName: __ZNSt3__16vectorI6PlayerNS_9allocatorIS1_EEED2B8ue170006Ev, symObjAddr: 0x2DD0, symBinAddr: 0x100003C7C, symSize: 0x44 }
  - { offsetInCU: 0x15205, offset: 0x15205, size: 0x8, addend: 0x0, symName: __ZNSt3__16vectorI6PlayerNS_9allocatorIS1_EEE16__destroy_vectorC1B8ue170006ERS4_, symObjAddr: 0x2E14, symBinAddr: 0x100003CC0, symSize: 0x34 }
  - { offsetInCU: 0x1523E, offset: 0x1523E, size: 0x8, addend: 0x0, symName: __ZNSt3__16vectorI6PlayerNS_9allocatorIS1_EEE16__destroy_vectorclB8ue170006Ev, symObjAddr: 0x2E48, symBinAddr: 0x100003CF4, symSize: 0x90 }
  - { offsetInCU: 0x15264, offset: 0x15264, size: 0x8, addend: 0x0, symName: __ZNSt3__16vectorI6PlayerNS_9allocatorIS1_EEE16__destroy_vectorC2B8ue170006ERS4_, symObjAddr: 0x2ED8, symBinAddr: 0x100003D84, symSize: 0x20 }
  - { offsetInCU: 0x1529D, offset: 0x1529D, size: 0x8, addend: 0x0, symName: __ZNSt3__16vectorI6PlayerNS_9allocatorIS1_EEE7__clearB8ue170006Ev, symObjAddr: 0x2EF8, symBinAddr: 0x100003DA4, symSize: 0x28 }
  - { offsetInCU: 0x152C3, offset: 0x152C3, size: 0x8, addend: 0x0, symName: __ZNKSt3__16vectorI6PlayerNS_9allocatorIS1_EEE17__annotate_deleteB8ue170006Ev, symObjAddr: 0x2F20, symBinAddr: 0x100003DCC, symSize: 0xD4 }
  - { offsetInCU: 0x152E9, offset: 0x152E9, size: 0x8, addend: 0x0, symName: __ZNSt3__116allocator_traitsINS_9allocatorI6PlayerEEE10deallocateB8ue170006ERS3_PS2_m, symObjAddr: 0x2FF4, symBinAddr: 0x100003EA0, symSize: 0x34 }
  - { offsetInCU: 0x1532B, offset: 0x1532B, size: 0x8, addend: 0x0, symName: __ZNSt3__16vectorI6PlayerNS_9allocatorIS1_EEE7__allocB8ue170006Ev, symObjAddr: 0x3028, symBinAddr: 0x100003ED4, symSize: 0x28 }
  - { offsetInCU: 0x15351, offset: 0x15351, size: 0x8, addend: 0x0, symName: __ZNKSt3__16vectorI6PlayerNS_9allocatorIS1_EEE8capacityB8ue170006Ev, symObjAddr: 0x3050, symBinAddr: 0x100003EFC, symSize: 0x40 }
  - { offsetInCU: 0x15377, offset: 0x15377, size: 0x8, addend: 0x0, symName: __ZNSt3__16vectorI6PlayerNS_9allocatorIS1_EEE22__base_destruct_at_endB8ue170006EPS1_, symObjAddr: 0x3090, symBinAddr: 0x100003F3C, symSize: 0x8C }
  - { offsetInCU: 0x153BB, offset: 0x153BB, size: 0x8, addend: 0x0, symName: __ZNSt3__116allocator_traitsINS_9allocatorI6PlayerEEE7destroyB8ue170006IS2_vEEvRS3_PT_, symObjAddr: 0x311C, symBinAddr: 0x100003FC8, symSize: 0x2C }
  - { offsetInCU: 0x153F8, offset: 0x153F8, size: 0x8, addend: 0x0, symName: __ZNSt3__19allocatorI6PlayerE7destroyB8ue170006EPS1_, symObjAddr: 0x3148, symBinAddr: 0x100003FF4, symSize: 0x28 }
  - { offsetInCU: 0x1542C, offset: 0x1542C, size: 0x8, addend: 0x0, symName: __ZN6PlayerD1Ev, symObjAddr: 0x3170, symBinAddr: 0x10000401C, symSize: 0x2C }
  - { offsetInCU: 0x15458, offset: 0x15458, size: 0x8, addend: 0x0, symName: __ZN6PlayerD2Ev, symObjAddr: 0x319C, symBinAddr: 0x100004048, symSize: 0x44 }
  - { offsetInCU: 0x15484, offset: 0x15484, size: 0x8, addend: 0x0, symName: __ZNKSt3__16vectorI6PlayerNS_9allocatorIS1_EEE31__annotate_contiguous_containerB8ue170006EPKvS6_S6_S6_, symObjAddr: 0x31E0, symBinAddr: 0x10000408C, symSize: 0x20 }
  - { offsetInCU: 0x154DA, offset: 0x154DA, size: 0x8, addend: 0x0, symName: __ZNKSt3__16vectorI6PlayerNS_9allocatorIS1_EEE4dataB8ue170006Ev, symObjAddr: 0x3200, symBinAddr: 0x1000040AC, symSize: 0x28 }
  - { offsetInCU: 0x15500, offset: 0x15500, size: 0x8, addend: 0x0, symName: __ZNSt3__19allocatorI6PlayerE10deallocateB8ue170006EPS1_m, symObjAddr: 0x3228, symBinAddr: 0x1000040D4, symSize: 0x44 }
  - { offsetInCU: 0x15542, offset: 0x15542, size: 0x8, addend: 0x0, symName: __ZNSt3__117__compressed_pairIP6PlayerNS_9allocatorIS1_EEE6secondB8ue170006Ev, symObjAddr: 0x3394, symBinAddr: 0x100004240, symSize: 0x24 }
  - { offsetInCU: 0x15568, offset: 0x15568, size: 0x8, addend: 0x0, symName: __ZNSt3__122__compressed_pair_elemINS_9allocatorI6PlayerEELi1ELb1EE5__getB8ue170006Ev, symObjAddr: 0x33B8, symBinAddr: 0x100004264, symSize: 0x14 }
  - { offsetInCU: 0x1558E, offset: 0x1558E, size: 0x8, addend: 0x0, symName: __ZNKSt3__16vectorI6PlayerNS_9allocatorIS1_EEE9__end_capB8ue170006Ev, symObjAddr: 0x33CC, symBinAddr: 0x100004278, symSize: 0x28 }
  - { offsetInCU: 0x155B4, offset: 0x155B4, size: 0x8, addend: 0x0, symName: __ZNKSt3__117__compressed_pairIP6PlayerNS_9allocatorIS1_EEE5firstB8ue170006Ev, symObjAddr: 0x33F4, symBinAddr: 0x1000042A0, symSize: 0x24 }
  - { offsetInCU: 0x155DA, offset: 0x155DA, size: 0x8, addend: 0x0, symName: __ZNKSt3__122__compressed_pair_elemIP6PlayerLi0ELb0EE5__getB8ue170006Ev, symObjAddr: 0x3418, symBinAddr: 0x1000042C4, symSize: 0x14 }
  - { offsetInCU: 0x15600, offset: 0x15600, size: 0x8, addend: 0x0, symName: __ZNSt3__16vectorINS_10unique_ptrI5EventNS_14default_deleteIS2_EEEENS_9allocatorIS5_EEED2B8ue170006Ev, symObjAddr: 0x342C, symBinAddr: 0x1000042D8, symSize: 0x44 }
  - { offsetInCU: 0x1562A, offset: 0x1562A, size: 0x8, addend: 0x0, symName: __ZNSt3__16vectorINS_10unique_ptrI5EventNS_14default_deleteIS2_EEEENS_9allocatorIS5_EEE16__destroy_vectorC1B8ue170006ERS8_, symObjAddr: 0x3470, symBinAddr: 0x10000431C, symSize: 0x34 }
  - { offsetInCU: 0x15663, offset: 0x15663, size: 0x8, addend: 0x0, symName: __ZNSt3__16vectorINS_10unique_ptrI5EventNS_14default_deleteIS2_EEEENS_9allocatorIS5_EEE16__destroy_vectorclB8ue170006Ev, symObjAddr: 0x34A4, symBinAddr: 0x100004350, symSize: 0x90 }
  - { offsetInCU: 0x15689, offset: 0x15689, size: 0x8, addend: 0x0, symName: __ZNSt3__16vectorINS_10unique_ptrI5EventNS_14default_deleteIS2_EEEENS_9allocatorIS5_EEE16__destroy_vectorC2B8ue170006ERS8_, symObjAddr: 0x3534, symBinAddr: 0x1000043E0, symSize: 0x20 }
  - { offsetInCU: 0x156C2, offset: 0x156C2, size: 0x8, addend: 0x0, symName: __ZNSt3__16vectorINS_10unique_ptrI5EventNS_14default_deleteIS2_EEEENS_9allocatorIS5_EEE7__clearB8ue170006Ev, symObjAddr: 0x3554, symBinAddr: 0x100004400, symSize: 0x28 }
  - { offsetInCU: 0x156E8, offset: 0x156E8, size: 0x8, addend: 0x0, symName: __ZNKSt3__16vectorINS_10unique_ptrI5EventNS_14default_deleteIS2_EEEENS_9allocatorIS5_EEE17__annotate_deleteB8ue170006Ev, symObjAddr: 0x357C, symBinAddr: 0x100004428, symSize: 0xB8 }
  - { offsetInCU: 0x1570E, offset: 0x1570E, size: 0x8, addend: 0x0, symName: __ZNSt3__116allocator_traitsINS_9allocatorINS_10unique_ptrI5EventNS_14default_deleteIS3_EEEEEEE10deallocateB8ue170006ERS7_PS6_m, symObjAddr: 0x3634, symBinAddr: 0x1000044E0, symSize: 0x34 }
  - { offsetInCU: 0x15750, offset: 0x15750, size: 0x8, addend: 0x0, symName: __ZNSt3__16vectorINS_10unique_ptrI5EventNS_14default_deleteIS2_EEEENS_9allocatorIS5_EEE7__allocB8ue170006Ev, symObjAddr: 0x3668, symBinAddr: 0x100004514, symSize: 0x28 }
  - { offsetInCU: 0x15776, offset: 0x15776, size: 0x8, addend: 0x0, symName: __ZNKSt3__16vectorINS_10unique_ptrI5EventNS_14default_deleteIS2_EEEENS_9allocatorIS5_EEE8capacityB8ue170006Ev, symObjAddr: 0x3690, symBinAddr: 0x10000453C, symSize: 0x40 }
  - { offsetInCU: 0x1579C, offset: 0x1579C, size: 0x8, addend: 0x0, symName: __ZNSt3__16vectorINS_10unique_ptrI5EventNS_14default_deleteIS2_EEEENS_9allocatorIS5_EEE22__base_destruct_at_endB8ue170006EPS5_, symObjAddr: 0x36D0, symBinAddr: 0x10000457C, symSize: 0x8C }
  - { offsetInCU: 0x157E0, offset: 0x157E0, size: 0x8, addend: 0x0, symName: __ZNSt3__116allocator_traitsINS_9allocatorINS_10unique_ptrI5EventNS_14default_deleteIS3_EEEEEEE7destroyB8ue170006IS6_vEEvRS7_PT_, symObjAddr: 0x375C, symBinAddr: 0x100004608, symSize: 0x2C }
  - { offsetInCU: 0x1581D, offset: 0x1581D, size: 0x8, addend: 0x0, symName: __ZNSt3__19allocatorINS_10unique_ptrI5EventNS_14default_deleteIS2_EEEEE7destroyB8ue170006EPS5_, symObjAddr: 0x379C, symBinAddr: 0x100004648, symSize: 0x28 }
  - { offsetInCU: 0x15851, offset: 0x15851, size: 0x8, addend: 0x0, symName: __ZNSt3__110unique_ptrI5EventNS_14default_deleteIS1_EEED1B8ue170006Ev, symObjAddr: 0x37C4, symBinAddr: 0x100004670, symSize: 0x2C }
  - { offsetInCU: 0x1587B, offset: 0x1587B, size: 0x8, addend: 0x0, symName: __ZNSt3__110unique_ptrI5EventNS_14default_deleteIS1_EEED2B8ue170006Ev, symObjAddr: 0x37F0, symBinAddr: 0x10000469C, symSize: 0x30 }
  - { offsetInCU: 0x158A5, offset: 0x158A5, size: 0x8, addend: 0x0, symName: __ZNSt3__110unique_ptrI5EventNS_14default_deleteIS1_EEE5resetB8ue170006EPS1_, symObjAddr: 0x3820, symBinAddr: 0x1000046CC, symSize: 0x78 }
  - { offsetInCU: 0x158E9, offset: 0x158E9, size: 0x8, addend: 0x0, symName: __ZNSt3__117__compressed_pairIP5EventNS_14default_deleteIS1_EEE5firstB8ue170006Ev, symObjAddr: 0x3898, symBinAddr: 0x100004744, symSize: 0x24 }
  - { offsetInCU: 0x1590F, offset: 0x1590F, size: 0x8, addend: 0x0, symName: __ZNSt3__117__compressed_pairIP5EventNS_14default_deleteIS1_EEE6secondB8ue170006Ev, symObjAddr: 0x38BC, symBinAddr: 0x100004768, symSize: 0x24 }
  - { offsetInCU: 0x15935, offset: 0x15935, size: 0x8, addend: 0x0, symName: __ZNKSt3__114default_deleteI5EventEclB8ue170006EPS1_, symObjAddr: 0x38E0, symBinAddr: 0x10000478C, symSize: 0x4C }
  - { offsetInCU: 0x15969, offset: 0x15969, size: 0x8, addend: 0x0, symName: __ZNSt3__122__compressed_pair_elemIP5EventLi0ELb0EE5__getB8ue170006Ev, symObjAddr: 0x392C, symBinAddr: 0x1000047D8, symSize: 0x14 }
  - { offsetInCU: 0x1598F, offset: 0x1598F, size: 0x8, addend: 0x0, symName: __ZNSt3__122__compressed_pair_elemINS_14default_deleteI5EventEELi1ELb1EE5__getB8ue170006Ev, symObjAddr: 0x3940, symBinAddr: 0x1000047EC, symSize: 0x14 }
  - { offsetInCU: 0x159B5, offset: 0x159B5, size: 0x8, addend: 0x0, symName: __ZNKSt3__16vectorINS_10unique_ptrI5EventNS_14default_deleteIS2_EEEENS_9allocatorIS5_EEE31__annotate_contiguous_containerB8ue170006EPKvSA_SA_SA_, symObjAddr: 0x3954, symBinAddr: 0x100004800, symSize: 0x20 }
  - { offsetInCU: 0x15A0B, offset: 0x15A0B, size: 0x8, addend: 0x0, symName: __ZNKSt3__16vectorINS_10unique_ptrI5EventNS_14default_deleteIS2_EEEENS_9allocatorIS5_EEE4dataB8ue170006Ev, symObjAddr: 0x3974, symBinAddr: 0x100004820, symSize: 0x28 }
  - { offsetInCU: 0x15A31, offset: 0x15A31, size: 0x8, addend: 0x0, symName: __ZNKSt3__16vectorINS_10unique_ptrI5EventNS_14default_deleteIS2_EEEENS_9allocatorIS5_EEE4sizeB8ue170006Ev, symObjAddr: 0x399C, symBinAddr: 0x100004848, symSize: 0x28 }
  - { offsetInCU: 0x15A57, offset: 0x15A57, size: 0x8, addend: 0x0, symName: __ZNSt3__19allocatorINS_10unique_ptrI5EventNS_14default_deleteIS2_EEEEE10deallocateB8ue170006EPS5_m, symObjAddr: 0x39C4, symBinAddr: 0x100004870, symSize: 0x40 }
  - { offsetInCU: 0x15A99, offset: 0x15A99, size: 0x8, addend: 0x0, symName: __ZNSt3__117__compressed_pairIPNS_10unique_ptrI5EventNS_14default_deleteIS2_EEEENS_9allocatorIS5_EEE6secondB8ue170006Ev, symObjAddr: 0x3A04, symBinAddr: 0x1000048B0, symSize: 0x24 }
  - { offsetInCU: 0x15ABF, offset: 0x15ABF, size: 0x8, addend: 0x0, symName: __ZNSt3__122__compressed_pair_elemINS_9allocatorINS_10unique_ptrI5EventNS_14default_deleteIS3_EEEEEELi1ELb1EE5__getB8ue170006Ev, symObjAddr: 0x3A28, symBinAddr: 0x1000048D4, symSize: 0x14 }
  - { offsetInCU: 0x15AE5, offset: 0x15AE5, size: 0x8, addend: 0x0, symName: __ZNKSt3__16vectorINS_10unique_ptrI5EventNS_14default_deleteIS2_EEEENS_9allocatorIS5_EEE9__end_capB8ue170006Ev, symObjAddr: 0x3A3C, symBinAddr: 0x1000048E8, symSize: 0x28 }
  - { offsetInCU: 0x15B0B, offset: 0x15B0B, size: 0x8, addend: 0x0, symName: __ZNKSt3__117__compressed_pairIPNS_10unique_ptrI5EventNS_14default_deleteIS2_EEEENS_9allocatorIS5_EEE5firstB8ue170006Ev, symObjAddr: 0x3A64, symBinAddr: 0x100004910, symSize: 0x24 }
  - { offsetInCU: 0x15B31, offset: 0x15B31, size: 0x8, addend: 0x0, symName: __ZNKSt3__122__compressed_pair_elemIPNS_10unique_ptrI5EventNS_14default_deleteIS2_EEEELi0ELb0EE5__getB8ue170006Ev, symObjAddr: 0x3A88, symBinAddr: 0x100004934, symSize: 0x14 }
  - { offsetInCU: 0x15B57, offset: 0x15B57, size: 0x8, addend: 0x0, symName: __ZNKSt3__19basic_iosIcNS_11char_traitsIcEEE4failB8ue170006Ev, symObjAddr: 0x3A9C, symBinAddr: 0x100004948, symSize: 0x28 }
  - { offsetInCU: 0x15B7D, offset: 0x15B7D, size: 0x8, addend: 0x0, symName: __ZNKSt3__18ios_base4failB8ue170006Ev, symObjAddr: 0x3AC4, symBinAddr: 0x100004970, symSize: 0x28 }
  - { offsetInCU: 0x15BA5, offset: 0x15BA5, size: 0x8, addend: 0x0, symName: __ZNSt3__112basic_stringIcNS_11char_traitsIcEENS_9allocatorIcEEEC2B8ue170006Ev, symObjAddr: 0x3AEC, symBinAddr: 0x100004998, symSize: 0x48 }
  - { offsetInCU: 0x15BCF, offset: 0x15BCF, size: 0x8, addend: 0x0, symName: __ZNSt3__117__compressed_pairINS_12basic_stringIcNS_11char_traitsIcEENS_9allocatorIcEEE5__repES5_EC1B8ue170006INS_18__default_init_tagESA_EEOT_OT0_, symObjAddr: 0x3B34, symBinAddr: 0x1000049E0, symSize: 0x3C }
  - { offsetInCU: 0x15C27, offset: 0x15C27, size: 0x8, addend: 0x0, symName: __ZNSt3__112basic_stringIcNS_11char_traitsIcEENS_9allocatorIcEEE14__default_initB8ue170006Ev, symObjAddr: 0x3B70, symBinAddr: 0x100004A1C, symSize: 0x40 }
  - { offsetInCU: 0x15C4D, offset: 0x15C4D, size: 0x8, addend: 0x0, symName: __ZNSt3__117__compressed_pairINS_12basic_stringIcNS_11char_traitsIcEENS_9allocatorIcEEE5__repES5_EC2B8ue170006INS_18__default_init_tagESA_EEOT_OT0_, symObjAddr: 0x3BB0, symBinAddr: 0x100004A5C, symSize: 0x3C }
  - { offsetInCU: 0x15CA5, offset: 0x15CA5, size: 0x8, addend: 0x0, symName: __ZNSt3__122__compressed_pair_elemINS_12basic_stringIcNS_11char_traitsIcEENS_9allocatorIcEEE5__repELi0ELb0EEC2B8ue170006ENS_18__default_init_tagE, symObjAddr: 0x3BEC, symBinAddr: 0x100004A98, symSize: 0x14 }
  - { offsetInCU: 0x15CDA, offset: 0x15CDA, size: 0x8, addend: 0x0, symName: __ZNSt3__122__compressed_pair_elemINS_9allocatorIcEELi1ELb1EEC2B8ue170006ENS_18__default_init_tagE, symObjAddr: 0x3C00, symBinAddr: 0x100004AAC, symSize: 0x2C }
  - { offsetInCU: 0x15D0F, offset: 0x15D0F, size: 0x8, addend: 0x0, symName: __ZNSt3__19allocatorIcEC2B8ue170006Ev, symObjAddr: 0x3C2C, symBinAddr: 0x100004AD8, symSize: 0x2C }
  - { offsetInCU: 0x15D39, offset: 0x15D39, size: 0x8, addend: 0x0, symName: __ZNSt3__116__non_trivial_ifILb1ENS_9allocatorIcEEEC2B8ue170006Ev, symObjAddr: 0x3C58, symBinAddr: 0x100004B04, symSize: 0x14 }
  - { offsetInCU: 0x15D63, offset: 0x15D63, size: 0x8, addend: 0x0, symName: __ZNSt3__117__compressed_pairINS_12basic_stringIcNS_11char_traitsIcEENS_9allocatorIcEEE5__repES5_E5firstB8ue170006Ev, symObjAddr: 0x3C6C, symBinAddr: 0x100004B18, symSize: 0x24 }
  - { offsetInCU: 0x15D89, offset: 0x15D89, size: 0x8, addend: 0x0, symName: __ZNSt3__122__compressed_pair_elemINS_12basic_stringIcNS_11char_traitsIcEENS_9allocatorIcEEE5__repELi0ELb0EE5__getB8ue170006Ev, symObjAddr: 0x3C90, symBinAddr: 0x100004B3C, symSize: 0x14 }
  - { offsetInCU: 0x15DAF, offset: 0x15DAF, size: 0x8, addend: 0x0, symName: __ZNKSt3__19basic_iosIcNS_11char_traitsIcEEE5widenB8ue170006Ec, symObjAddr: 0x3CA4, symBinAddr: 0x100004B50, symSize: 0x84 }
  - { offsetInCU: 0x15E13, offset: 0x15E13, size: 0x8, addend: 0x0, symName: __ZNKSt3__15ctypeIcE5widenB8ue170006Ec, symObjAddr: 0x3D54, symBinAddr: 0x100004C00, symSize: 0x38 }
  - { offsetInCU: 0x15E48, offset: 0x15E48, size: 0x8, addend: 0x0, symName: __ZNSt3__19basic_iosIcNS_11char_traitsIcEEEC2B8ue170006Ev, symObjAddr: 0x3D8C, symBinAddr: 0x100004C38, symSize: 0x44 }
  - { offsetInCU: 0x15E72, offset: 0x15E72, size: 0x8, addend: 0x0, symName: __ZNSt3__113basic_istreamIcNS_11char_traitsIcEEEC2B8ue170006EPNS_15basic_streambufIcS2_EE, symObjAddr: 0x3DD0, symBinAddr: 0x100004C7C, symSize: 0x64 }
  - { offsetInCU: 0x15EB7, offset: 0x15EB7, size: 0x8, addend: 0x0, symName: __ZNSt3__115basic_stringbufIcNS_11char_traitsIcEENS_9allocatorIcEEEC1B8ue170006ERKNS_12basic_stringIcS2_S4_EEj, symObjAddr: 0x3E34, symBinAddr: 0x100004CE0, symSize: 0x3C }
  - { offsetInCU: 0x15EFF, offset: 0x15EFF, size: 0x8, addend: 0x0, symName: __ZNSt3__18ios_baseC2B8ue170006Ev, symObjAddr: 0x3E70, symBinAddr: 0x100004D1C, symSize: 0x24 }
  - { offsetInCU: 0x15F29, offset: 0x15F29, size: 0x8, addend: 0x0, symName: __ZNSt3__19basic_iosIcNS_11char_traitsIcEEE4initB8ue170006EPNS_15basic_streambufIcS2_EE, symObjAddr: 0x3E94, symBinAddr: 0x100004D40, symSize: 0x44 }
  - { offsetInCU: 0x15F60, offset: 0x15F60, size: 0x8, addend: 0x0, symName: __ZNSt3__111char_traitsIcE3eofB8ue170006Ev, symObjAddr: 0x3ED8, symBinAddr: 0x100004D84, symSize: 0x8 }
  - { offsetInCU: 0x15F74, offset: 0x15F74, size: 0x8, addend: 0x0, symName: __ZNSt3__115basic_stringbufIcNS_11char_traitsIcEENS_9allocatorIcEEEC2B8ue170006ERKNS_12basic_stringIcS2_S4_EEj, symObjAddr: 0x3EE0, symBinAddr: 0x100004D8C, symSize: 0xB4 }
  - { offsetInCU: 0x15FBC, offset: 0x15FBC, size: 0x8, addend: 0x0, symName: __ZNKSt3__112basic_stringIcNS_11char_traitsIcEENS_9allocatorIcEEE13get_allocatorB8ue170006Ev, symObjAddr: 0x3F94, symBinAddr: 0x100004E40, symSize: 0x24 }
  - { offsetInCU: 0x15FE2, offset: 0x15FE2, size: 0x8, addend: 0x0, symName: __ZNSt3__112basic_stringIcNS_11char_traitsIcEENS_9allocatorIcEEEC1B8ue170006ERKS4_, symObjAddr: 0x3FB8, symBinAddr: 0x100004E64, symSize: 0x34 }
  - { offsetInCU: 0x1601B, offset: 0x1601B, size: 0x8, addend: 0x0, symName: __ZNKSt3__112basic_stringIcNS_11char_traitsIcEENS_9allocatorIcEEE7__allocB8ue170006Ev, symObjAddr: 0x3FEC, symBinAddr: 0x100004E98, symSize: 0x24 }
  - { offsetInCU: 0x16041, offset: 0x16041, size: 0x8, addend: 0x0, symName: __ZNKSt3__117__compressed_pairINS_12basic_stringIcNS_11char_traitsIcEENS_9allocatorIcEEE5__repES5_E6secondB8ue170006Ev, symObjAddr: 0x4010, symBinAddr: 0x100004EBC, symSize: 0x24 }
  - { offsetInCU: 0x16067, offset: 0x16067, size: 0x8, addend: 0x0, symName: __ZNKSt3__122__compressed_pair_elemINS_9allocatorIcEELi1ELb1EE5__getB8ue170006Ev, symObjAddr: 0x4034, symBinAddr: 0x100004EE0, symSize: 0x14 }
  - { offsetInCU: 0x1608D, offset: 0x1608D, size: 0x8, addend: 0x0, symName: __ZNSt3__112basic_stringIcNS_11char_traitsIcEENS_9allocatorIcEEEC2B8ue170006ERKS4_, symObjAddr: 0x4048, symBinAddr: 0x100004EF4, symSize: 0x48 }
  - { offsetInCU: 0x160C6, offset: 0x160C6, size: 0x8, addend: 0x0, symName: __ZNSt3__117__compressed_pairINS_12basic_stringIcNS_11char_traitsIcEENS_9allocatorIcEEE5__repES5_EC1B8ue170006INS_18__default_init_tagERKS5_EEOT_OT0_, symObjAddr: 0x4090, symBinAddr: 0x100004F3C, symSize: 0x3C }
  - { offsetInCU: 0x1611E, offset: 0x1611E, size: 0x8, addend: 0x0, symName: __ZNSt3__117__compressed_pairINS_12basic_stringIcNS_11char_traitsIcEENS_9allocatorIcEEE5__repES5_EC2B8ue170006INS_18__default_init_tagERKS5_EEOT_OT0_, symObjAddr: 0x40CC, symBinAddr: 0x100004F78, symSize: 0x40 }
  - { offsetInCU: 0x16176, offset: 0x16176, size: 0x8, addend: 0x0, symName: __ZNSt3__122__compressed_pair_elemINS_9allocatorIcEELi1ELb1EEC2B8ue170006IRKS2_vEEOT_, symObjAddr: 0x410C, symBinAddr: 0x100004FB8, symSize: 0x18 }
  - { offsetInCU: 0x161D1, offset: 0x161D1, size: 0x8, addend: 0x0, symName: __ZNKSt3__113basic_istreamIcNS_11char_traitsIcEEE6sentrycvbB8ue170006Ev, symObjAddr: 0x4124, symBinAddr: 0x100004FD0, symSize: 0x1C }
  - { offsetInCU: 0x161F7, offset: 0x161F7, size: 0x8, addend: 0x0, symName: __ZNSt3__112basic_stringIcNS_11char_traitsIcEENS_9allocatorIcEEE5clearB8ue170006Ev, symObjAddr: 0x4140, symBinAddr: 0x100004FEC, symSize: 0x78 }
  - { offsetInCU: 0x1621F, offset: 0x1621F, size: 0x8, addend: 0x0, symName: __ZNKSt3__18ios_base5widthB8ue170006Ev, symObjAddr: 0x41B8, symBinAddr: 0x100005064, symSize: 0x18 }
  - { offsetInCU: 0x16247, offset: 0x16247, size: 0x8, addend: 0x0, symName: __ZNKSt3__112basic_stringIcNS_11char_traitsIcEENS_9allocatorIcEEE8max_sizeB8ue170006Ev, symObjAddr: 0x41D0, symBinAddr: 0x10000507C, symSize: 0xAC }
  - { offsetInCU: 0x16299, offset: 0x16299, size: 0x8, addend: 0x0, symName: __ZNSt3__114numeric_limitsIlE3maxB8ue170006Ev, symObjAddr: 0x427C, symBinAddr: 0x100005128, symSize: 0x14 }
  - { offsetInCU: 0x162AD, offset: 0x162AD, size: 0x8, addend: 0x0, symName: __ZNKSt3__19basic_iosIcNS_11char_traitsIcEEE5rdbufB8ue170006Ev, symObjAddr: 0x4290, symBinAddr: 0x10000513C, symSize: 0x24 }
  - { offsetInCU: 0x162D5, offset: 0x162D5, size: 0x8, addend: 0x0, symName: __ZNSt3__115basic_streambufIcNS_11char_traitsIcEEE5sgetcB8ue170006Ev, symObjAddr: 0x42B4, symBinAddr: 0x100005160, symSize: 0x70 }
  - { offsetInCU: 0x162FB, offset: 0x162FB, size: 0x8, addend: 0x0, symName: __ZNSt3__111char_traitsIcE11eq_int_typeB8ue170006Eii, symObjAddr: 0x4324, symBinAddr: 0x1000051D0, symSize: 0x28 }
  - { offsetInCU: 0x1632E, offset: 0x1632E, size: 0x8, addend: 0x0, symName: __ZNSt3__111char_traitsIcE12to_char_typeB8ue170006Ei, symObjAddr: 0x434C, symBinAddr: 0x1000051F8, symSize: 0x18 }
  - { offsetInCU: 0x16351, offset: 0x16351, size: 0x8, addend: 0x0, symName: __ZNKSt3__15ctypeIcE2isB8ue170006Ejc, symObjAddr: 0x4364, symBinAddr: 0x100005210, symSize: 0x7C }
  - { offsetInCU: 0x16395, offset: 0x16395, size: 0x8, addend: 0x0, symName: __ZNSt3__115basic_streambufIcNS_11char_traitsIcEEE6sbumpcB8ue170006Ev, symObjAddr: 0x43E0, symBinAddr: 0x10000528C, symSize: 0x78 }
  - { offsetInCU: 0x163BB, offset: 0x163BB, size: 0x8, addend: 0x0, symName: __ZNSt3__18ios_base5widthB8ue170006El, symObjAddr: 0x4458, symBinAddr: 0x100005304, symSize: 0x2C }
  - { offsetInCU: 0x16401, offset: 0x16401, size: 0x8, addend: 0x0, symName: __ZNSt3__18ios_base18__setstate_nothrowB8ue170006Ej, symObjAddr: 0x4484, symBinAddr: 0x100005330, symSize: 0x64 }
  - { offsetInCU: 0x16436, offset: 0x16436, size: 0x8, addend: 0x0, symName: __ZNKSt3__19basic_iosIcNS_11char_traitsIcEEE10exceptionsB8ue170006Ev, symObjAddr: 0x44E8, symBinAddr: 0x100005394, symSize: 0x24 }
  - { offsetInCU: 0x1645C, offset: 0x1645C, size: 0x8, addend: 0x0, symName: __ZNSt3__19basic_iosIcNS_11char_traitsIcEEE8setstateB8ue170006Ej, symObjAddr: 0x450C, symBinAddr: 0x1000053B8, symSize: 0x2C }
  - { offsetInCU: 0x16491, offset: 0x16491, size: 0x8, addend: 0x0, symName: __ZNKSt3__112basic_stringIcNS_11char_traitsIcEENS_9allocatorIcEEE9__is_longB8ue170006Ev, symObjAddr: 0x4538, symBinAddr: 0x1000053E4, symSize: 0x38 }
  - { offsetInCU: 0x164B7, offset: 0x164B7, size: 0x8, addend: 0x0, symName: __ZNSt3__111char_traitsIcE6assignB8ue170006ERcRKc, symObjAddr: 0x4570, symBinAddr: 0x10000541C, symSize: 0x24 }
  - { offsetInCU: 0x164E8, offset: 0x164E8, size: 0x8, addend: 0x0, symName: __ZNSt3__112basic_stringIcNS_11char_traitsIcEENS_9allocatorIcEEE18__get_long_pointerB8ue170006Ev, symObjAddr: 0x4594, symBinAddr: 0x100005440, symSize: 0x28 }
  - { offsetInCU: 0x1650E, offset: 0x1650E, size: 0x8, addend: 0x0, symName: __ZNSt3__112basic_stringIcNS_11char_traitsIcEENS_9allocatorIcEEE15__set_long_sizeB8ue170006Em, symObjAddr: 0x45BC, symBinAddr: 0x100005468, symSize: 0x38 }
  - { offsetInCU: 0x16543, offset: 0x16543, size: 0x8, addend: 0x0, symName: __ZNSt3__112basic_stringIcNS_11char_traitsIcEENS_9allocatorIcEEE19__get_short_pointerB8ue170006Ev, symObjAddr: 0x45F4, symBinAddr: 0x1000054A0, symSize: 0x28 }
  - { offsetInCU: 0x16569, offset: 0x16569, size: 0x8, addend: 0x0, symName: __ZNSt3__112basic_stringIcNS_11char_traitsIcEENS_9allocatorIcEEE16__set_short_sizeB8ue170006Em, symObjAddr: 0x461C, symBinAddr: 0x1000054C8, symSize: 0x78 }
  - { offsetInCU: 0x1659E, offset: 0x1659E, size: 0x8, addend: 0x0, symName: __ZNKSt3__117__compressed_pairINS_12basic_stringIcNS_11char_traitsIcEENS_9allocatorIcEEE5__repES5_E5firstB8ue170006Ev, symObjAddr: 0x4694, symBinAddr: 0x100005540, symSize: 0x24 }
  - { offsetInCU: 0x165C4, offset: 0x165C4, size: 0x8, addend: 0x0, symName: __ZNKSt3__122__compressed_pair_elemINS_12basic_stringIcNS_11char_traitsIcEENS_9allocatorIcEEE5__repELi0ELb0EE5__getB8ue170006Ev, symObjAddr: 0x46B8, symBinAddr: 0x100005564, symSize: 0x14 }
  - { offsetInCU: 0x165EA, offset: 0x165EA, size: 0x8, addend: 0x0, symName: __ZNSt3__114pointer_traitsIPcE10pointer_toB8ue170006ERc, symObjAddr: 0x46CC, symBinAddr: 0x100005578, symSize: 0x14 }
  - { offsetInCU: 0x16617, offset: 0x16617, size: 0x8, addend: 0x0, symName: __ZNSt3__116allocator_traitsINS_9allocatorIcEEE8max_sizeB8ue170006IS2_vEEmRKS2_, symObjAddr: 0x46E0, symBinAddr: 0x10000558C, symSize: 0x24 }
  - { offsetInCU: 0x16645, offset: 0x16645, size: 0x8, addend: 0x0, symName: __ZNSt3__114numeric_limitsImE3maxB8ue170006Ev, symObjAddr: 0x4704, symBinAddr: 0x1000055B0, symSize: 0x14 }
  - { offsetInCU: 0x16659, offset: 0x16659, size: 0x8, addend: 0x0, symName: __ZNKSt3__19allocatorIcE8max_sizeB8ue170006Ev, symObjAddr: 0x4718, symBinAddr: 0x1000055C4, symSize: 0x14 }
  - { offsetInCU: 0x1667F, offset: 0x1667F, size: 0x8, addend: 0x0, symName: __ZNSt3__123__libcpp_numeric_limitsImLb1EE3maxB8ue170006Ev, symObjAddr: 0x472C, symBinAddr: 0x1000055D8, symSize: 0x8 }
  - { offsetInCU: 0x16693, offset: 0x16693, size: 0x8, addend: 0x0, symName: __ZNSt3__123__libcpp_numeric_limitsIlLb1EE3maxB8ue170006Ev, symObjAddr: 0x4734, symBinAddr: 0x1000055E0, symSize: 0x8 }
  - { offsetInCU: 0x166A7, offset: 0x166A7, size: 0x8, addend: 0x0, symName: __ZNKSt3__18ios_base5rdbufB8ue170006Ev, symObjAddr: 0x473C, symBinAddr: 0x1000055E8, symSize: 0x18 }
  - { offsetInCU: 0x166CD, offset: 0x166CD, size: 0x8, addend: 0x0, symName: __ZNSt3__111char_traitsIcE11to_int_typeB8ue170006Ec, symObjAddr: 0x4754, symBinAddr: 0x100005600, symSize: 0x14 }
  - { offsetInCU: 0x166F0, offset: 0x166F0, size: 0x8, addend: 0x0, symName: __Z7isasciii, symObjAddr: 0x4768, symBinAddr: 0x100005614, symSize: 0x24 }
  - { offsetInCU: 0x1671D, offset: 0x1671D, size: 0x8, addend: 0x0, symName: __ZNKSt3__18ios_base10exceptionsB8ue170006Ev, symObjAddr: 0x478C, symBinAddr: 0x100005638, symSize: 0x18 }
  - { offsetInCU: 0x16745, offset: 0x16745, size: 0x8, addend: 0x0, symName: __ZNSt3__18ios_base8setstateB8ue170006Ej, symObjAddr: 0x47A4, symBinAddr: 0x100005650, symSize: 0x34 }
  - { offsetInCU: 0x1677C, offset: 0x1677C, size: 0x8, addend: 0x0, symName: __ZNSt3__111char_traitsIcE6lengthB8ue170006EPKc, symObjAddr: 0x49C4, symBinAddr: 0x100005870, symSize: 0x34 }
  - { offsetInCU: 0x167BD, offset: 0x167BD, size: 0x8, addend: 0x0, symName: __ZNKSt3__113basic_ostreamIcNS_11char_traitsIcEEE6sentrycvbB8ue170006Ev, symObjAddr: 0x49F8, symBinAddr: 0x1000058A4, symSize: 0x1C }
  - { offsetInCU: 0x167E3, offset: 0x167E3, size: 0x8, addend: 0x0, symName: __ZNSt3__119ostreambuf_iteratorIcNS_11char_traitsIcEEEC1B8ue170006ERNS_13basic_ostreamIcS2_EE, symObjAddr: 0x4C54, symBinAddr: 0x100005B00, symSize: 0x34 }
  - { offsetInCU: 0x1681B, offset: 0x1681B, size: 0x8, addend: 0x0, symName: __ZNKSt3__18ios_base5flagsB8ue170006Ev, symObjAddr: 0x4C88, symBinAddr: 0x100005B34, symSize: 0x18 }
  - { offsetInCU: 0x16843, offset: 0x16843, size: 0x8, addend: 0x0, symName: __ZNKSt3__19basic_iosIcNS_11char_traitsIcEEE4fillB8ue170006Ev, symObjAddr: 0x4CA0, symBinAddr: 0x100005B4C, symSize: 0x64 }
  - { offsetInCU: 0x1686B, offset: 0x1686B, size: 0x8, addend: 0x0, symName: __ZNKSt3__119ostreambuf_iteratorIcNS_11char_traitsIcEEE6failedB8ue170006Ev, symObjAddr: 0x4D04, symBinAddr: 0x100005BB0, symSize: 0x24 }
  - { offsetInCU: 0x16891, offset: 0x16891, size: 0x8, addend: 0x0, symName: __ZNSt3__115basic_streambufIcNS_11char_traitsIcEEE5sputnB8ue170006EPKcl, symObjAddr: 0x4D28, symBinAddr: 0x100005BD4, symSize: 0x3C }
  - { offsetInCU: 0x168D3, offset: 0x168D3, size: 0x8, addend: 0x0, symName: __ZNSt3__112basic_stringIcNS_11char_traitsIcEENS_9allocatorIcEEEC1B8ue170006Emc, symObjAddr: 0x4D64, symBinAddr: 0x100005C10, symSize: 0x3C }
  - { offsetInCU: 0x1691B, offset: 0x1691B, size: 0x8, addend: 0x0, symName: __ZNSt3__112basic_stringIcNS_11char_traitsIcEENS_9allocatorIcEEE4dataB8ue170006Ev, symObjAddr: 0x4DA0, symBinAddr: 0x100005C4C, symSize: 0x28 }
  - { offsetInCU: 0x16941, offset: 0x16941, size: 0x8, addend: 0x0, symName: __ZNSt3__112basic_stringIcNS_11char_traitsIcEENS_9allocatorIcEEEC2B8ue170006Emc, symObjAddr: 0x4DC8, symBinAddr: 0x100005C74, symSize: 0x4C }
  - { offsetInCU: 0x16989, offset: 0x16989, size: 0x8, addend: 0x0, symName: __ZNSt3__112basic_stringIcNS_11char_traitsIcEENS_9allocatorIcEEE13__get_pointerB8ue170006Ev, symObjAddr: 0x4E28, symBinAddr: 0x100005CD4, symSize: 0x54 }
  - { offsetInCU: 0x169AF, offset: 0x169AF, size: 0x8, addend: 0x0, symName: __ZNSt3__119ostreambuf_iteratorIcNS_11char_traitsIcEEEC2B8ue170006ERNS_13basic_ostreamIcS2_EE, symObjAddr: 0x4E7C, symBinAddr: 0x100005D28, symSize: 0x54 }
  - { offsetInCU: 0x169E7, offset: 0x169E7, size: 0x8, addend: 0x0, symName: __ZNSt3__110shared_ptrI3JobED2B8ue170006Ev, symObjAddr: 0x4EF4, symBinAddr: 0x100005DA0, symSize: 0x54 }
  - { offsetInCU: 0x16A11, offset: 0x16A11, size: 0x8, addend: 0x0, symName: __ZNSt3__119__shared_weak_count16__release_sharedB8ue170006Ev, symObjAddr: 0x4F48, symBinAddr: 0x100005DF4, symSize: 0x3C }
  - { offsetInCU: 0x16A37, offset: 0x16A37, size: 0x8, addend: 0x0, symName: __ZNSt3__114__shared_count16__release_sharedB8ue170006Ev, symObjAddr: 0x4F84, symBinAddr: 0x100005E30, symSize: 0x7C }
  - { offsetInCU: 0x16A5D, offset: 0x16A5D, size: 0x8, addend: 0x0, symName: __ZNSt3__110shared_ptrI9CharacterED2B8ue170006Ev, symObjAddr: 0x5030, symBinAddr: 0x100005EDC, symSize: 0x54 }
  - { offsetInCU: 0x16A87, offset: 0x16A87, size: 0x8, addend: 0x0, symName: __ZNSt3__110shared_ptrI3JobEC1B8ue170006EOS2_, symObjAddr: 0x5084, symBinAddr: 0x100005F30, symSize: 0x34 }
  - { offsetInCU: 0x16AC0, offset: 0x16AC0, size: 0x8, addend: 0x0, symName: __ZNSt3__110shared_ptrI3JobE4swapB8ue170006ERS2_, symObjAddr: 0x50B8, symBinAddr: 0x100005F64, symSize: 0x44 }
  - { offsetInCU: 0x16AF5, offset: 0x16AF5, size: 0x8, addend: 0x0, symName: __ZNSt3__110shared_ptrI3JobEC2B8ue170006EOS2_, symObjAddr: 0x50FC, symBinAddr: 0x100005FA8, symSize: 0x40 }
  - { offsetInCU: 0x16B2E, offset: 0x16B2E, size: 0x8, addend: 0x0, symName: __ZNSt3__110shared_ptrI9CharacterEC1B8ue170006EOS2_, symObjAddr: 0x51B4, symBinAddr: 0x100006060, symSize: 0x34 }
  - { offsetInCU: 0x16B67, offset: 0x16B67, size: 0x8, addend: 0x0, symName: __ZNSt3__110shared_ptrI9CharacterE4swapB8ue170006ERS2_, symObjAddr: 0x51E8, symBinAddr: 0x100006094, symSize: 0x44 }
  - { offsetInCU: 0x16B9C, offset: 0x16B9C, size: 0x8, addend: 0x0, symName: __ZNSt3__110shared_ptrI9CharacterEC2B8ue170006EOS2_, symObjAddr: 0x522C, symBinAddr: 0x1000060D8, symSize: 0x40 }
  - { offsetInCU: 0x16BD5, offset: 0x16BD5, size: 0x8, addend: 0x0, symName: __ZNSt3__16vectorI6PlayerNS_9allocatorIS1_EEE9__end_capB8ue170006Ev, symObjAddr: 0x52A8, symBinAddr: 0x100006154, symSize: 0x28 }
  - { offsetInCU: 0x16BFB, offset: 0x16BFB, size: 0x8, addend: 0x0, symName: __ZNSt3__16vectorI6PlayerNS_9allocatorIS1_EEE22__construct_one_at_endB8ue170006IJRNS_12basic_stringIcNS_11char_traitsIcEENS2_IcEEEERNS_10shared_ptrI3JobEERNSC_I9CharacterEEEEEvDpOT_, symObjAddr: 0x52D0, symBinAddr: 0x10000617C, symSize: 0xA0 }
  - { offsetInCU: 0x16C72, offset: 0x16C72, size: 0x8, addend: 0x0, symName: __ZNSt3__16vectorI6PlayerNS_9allocatorIS1_EEE24__emplace_back_slow_pathIJRNS_12basic_stringIcNS_11char_traitsIcEENS2_IcEEEERNS_10shared_ptrI3JobEERNSC_I9CharacterEEEEEvDpOT_, symObjAddr: 0x5370, symBinAddr: 0x10000621C, symSize: 0xE8 }
  - { offsetInCU: 0x16CFA, offset: 0x16CFA, size: 0x8, addend: 0x0, symName: __ZNSt3__16vectorI6PlayerNS_9allocatorIS1_EEE4backB8ue170006Ev, symObjAddr: 0x5458, symBinAddr: 0x100006304, symSize: 0x1C }
  - { offsetInCU: 0x16D20, offset: 0x16D20, size: 0x8, addend: 0x0, symName: __ZNSt3__117__compressed_pairIP6PlayerNS_9allocatorIS1_EEE5firstB8ue170006Ev, symObjAddr: 0x5474, symBinAddr: 0x100006320, symSize: 0x24 }
  - { offsetInCU: 0x16D46, offset: 0x16D46, size: 0x8, addend: 0x0, symName: __ZNSt3__122__compressed_pair_elemIP6PlayerLi0ELb0EE5__getB8ue170006Ev, symObjAddr: 0x5498, symBinAddr: 0x100006344, symSize: 0x14 }
  - { offsetInCU: 0x16D85, offset: 0x16D85, size: 0x8, addend: 0x0, symName: __ZNSt3__16vectorI6PlayerNS_9allocatorIS1_EEE21_ConstructTransactionC1B8ue170006ERS4_m, symObjAddr: 0x54AC, symBinAddr: 0x100006358, symSize: 0x3C }
  - { offsetInCU: 0x16DCD, offset: 0x16DCD, size: 0x8, addend: 0x0, symName: __ZNSt3__116allocator_traitsINS_9allocatorI6PlayerEEE9constructB8ue170006IS2_JRNS_12basic_stringIcNS_11char_traitsIcEENS1_IcEEEERNS_10shared_ptrI3JobEERNSC_I9CharacterEEEvEEvRS3_PT_DpOT0_, symObjAddr: 0x54E8, symBinAddr: 0x100006394, symSize: 0x44 }
  - { offsetInCU: 0x16E4C, offset: 0x16E4C, size: 0x8, addend: 0x0, symName: __ZNSt3__16vectorI6PlayerNS_9allocatorIS1_EEE21_ConstructTransactionD1B8ue170006Ev, symObjAddr: 0x552C, symBinAddr: 0x1000063D8, symSize: 0x2C }
  - { offsetInCU: 0x16E76, offset: 0x16E76, size: 0x8, addend: 0x0, symName: __ZNSt3__16vectorI6PlayerNS_9allocatorIS1_EEE21_ConstructTransactionC2B8ue170006ERS4_m, symObjAddr: 0x5558, symBinAddr: 0x100006404, symSize: 0x4C }
  - { offsetInCU: 0x16EBE, offset: 0x16EBE, size: 0x8, addend: 0x0, symName: __ZNSt3__19allocatorI6PlayerE9constructB8ue170006IS1_JRNS_12basic_stringIcNS_11char_traitsIcEENS0_IcEEEERNS_10shared_ptrI3JobEERNSA_I9CharacterEEEEEvPT_DpOT0_, symObjAddr: 0x55A4, symBinAddr: 0x100006450, symSize: 0xCC }
  - { offsetInCU: 0x16F3A, offset: 0x16F3A, size: 0x8, addend: 0x0, symName: __ZNSt3__110shared_ptrI3JobEC1B8ue170006ERKS2_, symObjAddr: 0x5670, symBinAddr: 0x10000651C, symSize: 0x34 }
  - { offsetInCU: 0x16F73, offset: 0x16F73, size: 0x8, addend: 0x0, symName: __ZNSt3__110shared_ptrI9CharacterEC1B8ue170006ERKS2_, symObjAddr: 0x56A4, symBinAddr: 0x100006550, symSize: 0x34 }
  - { offsetInCU: 0x16FAC, offset: 0x16FAC, size: 0x8, addend: 0x0, symName: __ZNSt3__110shared_ptrI3JobEC2B8ue170006ERKS2_, symObjAddr: 0x56D8, symBinAddr: 0x100006584, symSize: 0x70 }
  - { offsetInCU: 0x16FE5, offset: 0x16FE5, size: 0x8, addend: 0x0, symName: __ZNSt3__119__shared_weak_count12__add_sharedB8ue170006Ev, symObjAddr: 0x5748, symBinAddr: 0x1000065F4, symSize: 0x24 }
  - { offsetInCU: 0x1700B, offset: 0x1700B, size: 0x8, addend: 0x0, symName: __ZNSt3__114__shared_count12__add_sharedB8ue170006Ev, symObjAddr: 0x576C, symBinAddr: 0x100006618, symSize: 0x28 }
  - { offsetInCU: 0x17031, offset: 0x17031, size: 0x8, addend: 0x0, symName: __ZNSt3__110shared_ptrI9CharacterEC2B8ue170006ERKS2_, symObjAddr: 0x57C4, symBinAddr: 0x100006670, symSize: 0x70 }
  - { offsetInCU: 0x1706A, offset: 0x1706A, size: 0x8, addend: 0x0, symName: __ZNSt3__16vectorI6PlayerNS_9allocatorIS1_EEE21_ConstructTransactionD2B8ue170006Ev, symObjAddr: 0x5834, symBinAddr: 0x1000066E0, symSize: 0x20 }
  - { offsetInCU: 0x17094, offset: 0x17094, size: 0x8, addend: 0x0, symName: __ZNKSt3__16vectorI6PlayerNS_9allocatorIS1_EEE11__recommendB8ue170006Em, symObjAddr: 0x5854, symBinAddr: 0x100006700, symSize: 0xB4 }
  - { offsetInCU: 0x170E9, offset: 0x170E9, size: 0x8, addend: 0x0, symName: __ZNSt3__114__split_bufferI6PlayerRNS_9allocatorIS1_EEEC1EmmS4_, symObjAddr: 0x5908, symBinAddr: 0x1000067B4, symSize: 0x44 }
  - { offsetInCU: 0x1713F, offset: 0x1713F, size: 0x8, addend: 0x0, symName: __ZNSt3__114__split_bufferI6PlayerRNS_9allocatorIS1_EEED1Ev, symObjAddr: 0x5A5C, symBinAddr: 0x100006908, symSize: 0x2C }
  - { offsetInCU: 0x1716B, offset: 0x1716B, size: 0x8, addend: 0x0, symName: __ZNKSt3__16vectorI6PlayerNS_9allocatorIS1_EEE8max_sizeEv, symObjAddr: 0x5A88, symBinAddr: 0x100006934, symSize: 0x60 }
  - { offsetInCU: 0x17193, offset: 0x17193, size: 0x8, addend: 0x0, symName: __ZNKSt3__16vectorI6PlayerNS_9allocatorIS1_EEE20__throw_length_errorB8ue170006Ev, symObjAddr: 0x5AE8, symBinAddr: 0x100006994, symSize: 0x1C }
  - { offsetInCU: 0x171C3, offset: 0x171C3, size: 0x8, addend: 0x0, symName: __ZNSt3__116allocator_traitsINS_9allocatorI6PlayerEEE8max_sizeB8ue170006IS3_vEEmRKS3_, symObjAddr: 0x5B5C, symBinAddr: 0x100006A08, symSize: 0x24 }
  - { offsetInCU: 0x171F1, offset: 0x171F1, size: 0x8, addend: 0x0, symName: __ZNKSt3__16vectorI6PlayerNS_9allocatorIS1_EEE7__allocB8ue170006Ev, symObjAddr: 0x5B80, symBinAddr: 0x100006A2C, symSize: 0x28 }
  - { offsetInCU: 0x1722B, offset: 0x1722B, size: 0x8, addend: 0x0, symName: __ZNKSt3__16__lessIvvEclB8ue170006ImmEEbRKT_RKT0_, symObjAddr: 0x5BFC, symBinAddr: 0x100006AA8, symSize: 0x34 }
  - { offsetInCU: 0x1727F, offset: 0x1727F, size: 0x8, addend: 0x0, symName: __ZNKSt3__19allocatorI6PlayerE8max_sizeB8ue170006Ev, symObjAddr: 0x5C30, symBinAddr: 0x100006ADC, symSize: 0x18 }
  - { offsetInCU: 0x172A5, offset: 0x172A5, size: 0x8, addend: 0x0, symName: __ZNKSt3__117__compressed_pairIP6PlayerNS_9allocatorIS1_EEE6secondB8ue170006Ev, symObjAddr: 0x5C48, symBinAddr: 0x100006AF4, symSize: 0x24 }
  - { offsetInCU: 0x172CB, offset: 0x172CB, size: 0x8, addend: 0x0, symName: __ZNKSt3__122__compressed_pair_elemINS_9allocatorI6PlayerEELi1ELb1EE5__getB8ue170006Ev, symObjAddr: 0x5C6C, symBinAddr: 0x100006B18, symSize: 0x14 }
  - { offsetInCU: 0x172F1, offset: 0x172F1, size: 0x8, addend: 0x0, symName: __ZNSt12length_errorC1B8ue170006EPKc, symObjAddr: 0x5CE4, symBinAddr: 0x100006B90, symSize: 0x34 }
  - { offsetInCU: 0x17329, offset: 0x17329, size: 0x8, addend: 0x0, symName: __ZNSt12length_errorC2B8ue170006EPKc, symObjAddr: 0x5D18, symBinAddr: 0x100006BC4, symSize: 0x4C }
  - { offsetInCU: 0x17361, offset: 0x17361, size: 0x8, addend: 0x0, symName: __ZNSt3__114__split_bufferI6PlayerRNS_9allocatorIS1_EEEC2EmmS4_, symObjAddr: 0x5DB8, symBinAddr: 0x100006C64, symSize: 0xE0 }
  - { offsetInCU: 0x173D4, offset: 0x173D4, size: 0x8, addend: 0x0, symName: __ZNSt3__117__compressed_pairIP6PlayerRNS_9allocatorIS1_EEEC1B8ue170006IDnS5_EEOT_OT0_, symObjAddr: 0x5E98, symBinAddr: 0x100006D44, symSize: 0x3C }
  - { offsetInCU: 0x1742C, offset: 0x1742C, size: 0x8, addend: 0x0, symName: __ZNSt3__114__split_bufferI6PlayerRNS_9allocatorIS1_EEE7__allocB8ue170006Ev, symObjAddr: 0x5F14, symBinAddr: 0x100006DC0, symSize: 0x28 }
  - { offsetInCU: 0x17452, offset: 0x17452, size: 0x8, addend: 0x0, symName: __ZNSt3__114__split_bufferI6PlayerRNS_9allocatorIS1_EEE9__end_capB8ue170006Ev, symObjAddr: 0x5F3C, symBinAddr: 0x100006DE8, symSize: 0x28 }
  - { offsetInCU: 0x17478, offset: 0x17478, size: 0x8, addend: 0x0, symName: __ZNSt3__117__compressed_pairIP6PlayerRNS_9allocatorIS1_EEEC2B8ue170006IDnS5_EEOT_OT0_, symObjAddr: 0x5F64, symBinAddr: 0x100006E10, symSize: 0x48 }
  - { offsetInCU: 0x174D0, offset: 0x174D0, size: 0x8, addend: 0x0, symName: __ZNSt3__122__compressed_pair_elemIRNS_9allocatorI6PlayerEELi1ELb0EEC2B8ue170006IS4_vEEOT_, symObjAddr: 0x5FAC, symBinAddr: 0x100006E58, symSize: 0x20 }
  - { offsetInCU: 0x17512, offset: 0x17512, size: 0x8, addend: 0x0, symName: __ZNSt3__19allocatorI6PlayerE8allocateB8ue170006Em, symObjAddr: 0x5FCC, symBinAddr: 0x100006E78, symSize: 0x5C }
  - { offsetInCU: 0x17546, offset: 0x17546, size: 0x8, addend: 0x0, symName: __ZNSt3__117__compressed_pairIP6PlayerRNS_9allocatorIS1_EEE6secondB8ue170006Ev, symObjAddr: 0x610C, symBinAddr: 0x100006FB8, symSize: 0x28 }
  - { offsetInCU: 0x1756C, offset: 0x1756C, size: 0x8, addend: 0x0, symName: __ZNSt3__122__compressed_pair_elemIRNS_9allocatorI6PlayerEELi1ELb0EE5__getB8ue170006Ev, symObjAddr: 0x6134, symBinAddr: 0x100006FE0, symSize: 0x18 }
  - { offsetInCU: 0x17592, offset: 0x17592, size: 0x8, addend: 0x0, symName: __ZNSt3__117__compressed_pairIP6PlayerRNS_9allocatorIS1_EEE5firstB8ue170006Ev, symObjAddr: 0x614C, symBinAddr: 0x100006FF8, symSize: 0x24 }
  - { offsetInCU: 0x175B8, offset: 0x175B8, size: 0x8, addend: 0x0, symName: __ZNSt3__116reverse_iteratorIP6PlayerEC1B8ue170006ES2_, symObjAddr: 0x629C, symBinAddr: 0x100007148, symSize: 0x34 }
  - { offsetInCU: 0x175F0, offset: 0x175F0, size: 0x8, addend: 0x0, symName: __ZNKSt3__116reverse_iteratorIP6PlayerE4baseB8ue170006Ev, symObjAddr: 0x62D0, symBinAddr: 0x10000717C, symSize: 0x18 }
  - { offsetInCU: 0x17616, offset: 0x17616, size: 0x8, addend: 0x0, symName: __ZNKSt3__16vectorI6PlayerNS_9allocatorIS1_EEE14__annotate_newB8ue170006Em, symObjAddr: 0x6324, symBinAddr: 0x1000071D0, symSize: 0xC8 }
  - { offsetInCU: 0x1764B, offset: 0x1764B, size: 0x8, addend: 0x0, symName: __ZNSt3__129_AllocatorDestroyRangeReverseINS_9allocatorI6PlayerEENS_16reverse_iteratorIPS2_EEEC1B8ue170006ERS3_RS6_S9_, symObjAddr: 0x6438, symBinAddr: 0x1000072E4, symSize: 0x44 }
  - { offsetInCU: 0x176A7, offset: 0x176A7, size: 0x8, addend: 0x0, symName: __ZNSt3__116allocator_traitsINS_9allocatorI6PlayerEEE9constructB8ue170006IS2_JS2_EvEEvRS3_PT_DpOT0_, symObjAddr: 0x64C4, symBinAddr: 0x100007370, symSize: 0x34 }
  - { offsetInCU: 0x176FE, offset: 0x176FE, size: 0x8, addend: 0x0, symName: __ZNKSt3__116reverse_iteratorIP6PlayerEdeB8ue170006Ev, symObjAddr: 0x651C, symBinAddr: 0x1000073C8, symSize: 0x28 }
  - { offsetInCU: 0x17732, offset: 0x17732, size: 0x8, addend: 0x0, symName: __ZNSt3__116reverse_iteratorIP6PlayerEppB8ue170006Ev, symObjAddr: 0x6544, symBinAddr: 0x1000073F0, symSize: 0x20 }
  - { offsetInCU: 0x17758, offset: 0x17758, size: 0x8, addend: 0x0, symName: __ZNSt3__128__exception_guard_exceptionsINS_29_AllocatorDestroyRangeReverseINS_9allocatorI6PlayerEENS_16reverse_iteratorIPS3_EEEEE10__completeB8ue170006Ev, symObjAddr: 0x6564, symBinAddr: 0x100007410, symSize: 0x1C }
  - { offsetInCU: 0x1777E, offset: 0x1777E, size: 0x8, addend: 0x0, symName: __ZNSt3__128__exception_guard_exceptionsINS_29_AllocatorDestroyRangeReverseINS_9allocatorI6PlayerEENS_16reverse_iteratorIPS3_EEEEED1B8ue170006Ev, symObjAddr: 0x6580, symBinAddr: 0x10000742C, symSize: 0x2C }
  - { offsetInCU: 0x177A8, offset: 0x177A8, size: 0x8, addend: 0x0, symName: __ZNSt3__128__exception_guard_exceptionsINS_29_AllocatorDestroyRangeReverseINS_9allocatorI6PlayerEENS_16reverse_iteratorIPS3_EEEEEC1B8ue170006ES8_, symObjAddr: 0x65AC, symBinAddr: 0x100007458, symSize: 0x34 }
  - { offsetInCU: 0x177E1, offset: 0x177E1, size: 0x8, addend: 0x0, symName: __ZNSt3__128__exception_guard_exceptionsINS_29_AllocatorDestroyRangeReverseINS_9allocatorI6PlayerEENS_16reverse_iteratorIPS3_EEEEEC2B8ue170006ES8_, symObjAddr: 0x65E0, symBinAddr: 0x10000748C, symSize: 0x30 }
  - { offsetInCU: 0x1781A, offset: 0x1781A, size: 0x8, addend: 0x0, symName: __ZNSt3__129_AllocatorDestroyRangeReverseINS_9allocatorI6PlayerEENS_16reverse_iteratorIPS2_EEEC2B8ue170006ERS3_RS6_S9_, symObjAddr: 0x6610, symBinAddr: 0x1000074BC, symSize: 0x38 }
  - { offsetInCU: 0x17871, offset: 0x17871, size: 0x8, addend: 0x0, symName: __ZNSt3__19allocatorI6PlayerE9constructB8ue170006IS1_JS1_EEEvPT_DpOT0_, symObjAddr: 0x6648, symBinAddr: 0x1000074F4, symSize: 0x30 }
  - { offsetInCU: 0x178C7, offset: 0x178C7, size: 0x8, addend: 0x0, symName: __ZN6PlayerC1EOS_, symObjAddr: 0x6678, symBinAddr: 0x100007524, symSize: 0x34 }
  - { offsetInCU: 0x178FC, offset: 0x178FC, size: 0x8, addend: 0x0, symName: __ZN6PlayerC2EOS_, symObjAddr: 0x66AC, symBinAddr: 0x100007558, symSize: 0x70 }
  - { offsetInCU: 0x17931, offset: 0x17931, size: 0x8, addend: 0x0, symName: __ZNSt3__112basic_stringIcNS_11char_traitsIcEENS_9allocatorIcEEEC1B8ue170006EOS5_, symObjAddr: 0x671C, symBinAddr: 0x1000075C8, symSize: 0x34 }
  - { offsetInCU: 0x1796A, offset: 0x1796A, size: 0x8, addend: 0x0, symName: __ZNSt3__112basic_stringIcNS_11char_traitsIcEENS_9allocatorIcEEEC2B8ue170006EOS5_, symObjAddr: 0x6750, symBinAddr: 0x1000075FC, symSize: 0x48 }
  - { offsetInCU: 0x179A8, offset: 0x179A8, size: 0x8, addend: 0x0, symName: __ZNSt3__119__to_address_helperINS_16reverse_iteratorIP6PlayerEEvE6__callB8ue170006ERKS4_, symObjAddr: 0x6798, symBinAddr: 0x100007644, symSize: 0x38 }
  - { offsetInCU: 0x179CB, offset: 0x179CB, size: 0x8, addend: 0x0, symName: __ZNKSt3__116reverse_iteratorIP6PlayerEptB8ue170006Ev, symObjAddr: 0x67D0, symBinAddr: 0x10000767C, symSize: 0x24 }
  - { offsetInCU: 0x179F1, offset: 0x179F1, size: 0x8, addend: 0x0, symName: __ZNSt3__128__exception_guard_exceptionsINS_29_AllocatorDestroyRangeReverseINS_9allocatorI6PlayerEENS_16reverse_iteratorIPS3_EEEEED2B8ue170006Ev, symObjAddr: 0x67F4, symBinAddr: 0x1000076A0, symSize: 0x50 }
  - { offsetInCU: 0x17A1B, offset: 0x17A1B, size: 0x8, addend: 0x0, symName: __ZNKSt3__129_AllocatorDestroyRangeReverseINS_9allocatorI6PlayerEENS_16reverse_iteratorIPS2_EEEclB8ue170006Ev, symObjAddr: 0x6844, symBinAddr: 0x1000076F0, symSize: 0xB4 }
  - { offsetInCU: 0x17A42, offset: 0x17A42, size: 0x8, addend: 0x0, symName: __ZNSt3__116reverse_iteratorINS0_IP6PlayerEEEC1B8ue170006ES3_, symObjAddr: 0x6968, symBinAddr: 0x100007814, symSize: 0x3C }
  - { offsetInCU: 0x17A7A, offset: 0x17A7A, size: 0x8, addend: 0x0, symName: __ZNSt3__116reverse_iteratorINS0_IP6PlayerEEEppB8ue170006Ev, symObjAddr: 0x6A28, symBinAddr: 0x1000078D4, symSize: 0x30 }
  - { offsetInCU: 0x17AA0, offset: 0x17AA0, size: 0x8, addend: 0x0, symName: __ZNKSt3__116reverse_iteratorINS0_IP6PlayerEEE4baseB8ue170006Ev, symObjAddr: 0x6A58, symBinAddr: 0x100007904, symSize: 0x24 }
  - { offsetInCU: 0x17ACB, offset: 0x17ACB, size: 0x8, addend: 0x0, symName: __ZNSt3__119__to_address_helperINS_16reverse_iteratorINS1_IP6PlayerEEEEvE6__callB8ue170006ERKS5_, symObjAddr: 0x6A7C, symBinAddr: 0x100007928, symSize: 0x38 }
  - { offsetInCU: 0x17AEE, offset: 0x17AEE, size: 0x8, addend: 0x0, symName: __ZNKSt3__116reverse_iteratorINS0_IP6PlayerEEEptB8ue170006Ev, symObjAddr: 0x6AB4, symBinAddr: 0x100007960, symSize: 0x24 }
  - { offsetInCU: 0x17B14, offset: 0x17B14, size: 0x8, addend: 0x0, symName: __ZNKSt3__116reverse_iteratorINS0_IP6PlayerEEEdeB8ue170006Ev, symObjAddr: 0x6AD8, symBinAddr: 0x100007984, symSize: 0x34 }
  - { offsetInCU: 0x17B48, offset: 0x17B48, size: 0x8, addend: 0x0, symName: __ZNSt3__116reverse_iteratorIP6PlayerEmmB8ue170006Ev, symObjAddr: 0x6B0C, symBinAddr: 0x1000079B8, symSize: 0x20 }
  - { offsetInCU: 0x17B6E, offset: 0x17B6E, size: 0x8, addend: 0x0, symName: __ZNSt3__116reverse_iteratorINS0_IP6PlayerEEEC2B8ue170006ES3_, symObjAddr: 0x6B2C, symBinAddr: 0x1000079D8, symSize: 0x2C }
  - { offsetInCU: 0x17BA6, offset: 0x17BA6, size: 0x8, addend: 0x0, symName: __ZNSt3__116reverse_iteratorIP6PlayerEC2B8ue170006ES2_, symObjAddr: 0x6B58, symBinAddr: 0x100007A04, symSize: 0x28 }
  - { offsetInCU: 0x17BDE, offset: 0x17BDE, size: 0x8, addend: 0x0, symName: __ZNSt3__114__split_bufferI6PlayerRNS_9allocatorIS1_EEED2Ev, symObjAddr: 0x6B80, symBinAddr: 0x100007A2C, symSize: 0x8C }
  - { offsetInCU: 0x17C0A, offset: 0x17C0A, size: 0x8, addend: 0x0, symName: __ZNSt3__114__split_bufferI6PlayerRNS_9allocatorIS1_EEE5clearB8ue170006Ev, symObjAddr: 0x6C0C, symBinAddr: 0x100007AB8, symSize: 0x28 }
  - { offsetInCU: 0x17C30, offset: 0x17C30, size: 0x8, addend: 0x0, symName: __ZNKSt3__114__split_bufferI6PlayerRNS_9allocatorIS1_EEE8capacityB8ue170006Ev, symObjAddr: 0x6C34, symBinAddr: 0x100007AE0, symSize: 0x40 }
  - { offsetInCU: 0x17C56, offset: 0x17C56, size: 0x8, addend: 0x0, symName: __ZNSt3__114__split_bufferI6PlayerRNS_9allocatorIS1_EEE17__destruct_at_endB8ue170006EPS1_, symObjAddr: 0x6C74, symBinAddr: 0x100007B20, symSize: 0x2C }
  - { offsetInCU: 0x17C8A, offset: 0x17C8A, size: 0x8, addend: 0x0, symName: __ZNSt3__114__split_bufferI6PlayerRNS_9allocatorIS1_EEE17__destruct_at_endB8ue170006EPS1_NS_17integral_constantIbLb0EEE, symObjAddr: 0x6CA0, symBinAddr: 0x100007B4C, symSize: 0x80 }
  - { offsetInCU: 0x17CCB, offset: 0x17CCB, size: 0x8, addend: 0x0, symName: __ZNKSt3__114__split_bufferI6PlayerRNS_9allocatorIS1_EEE9__end_capB8ue170006Ev, symObjAddr: 0x6D20, symBinAddr: 0x100007BCC, symSize: 0x28 }
  - { offsetInCU: 0x17CF1, offset: 0x17CF1, size: 0x8, addend: 0x0, symName: __ZNKSt3__117__compressed_pairIP6PlayerRNS_9allocatorIS1_EEE5firstB8ue170006Ev, symObjAddr: 0x6D48, symBinAddr: 0x100007BF4, symSize: 0x24 }
  - { offsetInCU: 0x17D17, offset: 0x17D17, size: 0x8, addend: 0x0, symName: __ZNKSt3__112basic_stringIcNS_11char_traitsIcEENS_9allocatorIcEEE4sizeB8ue170006Ev, symObjAddr: 0x6D6C, symBinAddr: 0x100007C18, symSize: 0x54 }
  - { offsetInCU: 0x17D3D, offset: 0x17D3D, size: 0x8, addend: 0x0, symName: __ZNKSt3__112basic_stringIcNS_11char_traitsIcEENS_9allocatorIcEEE15__get_long_sizeB8ue170006Ev, symObjAddr: 0x6DC0, symBinAddr: 0x100007C6C, symSize: 0x28 }
  - { offsetInCU: 0x17D63, offset: 0x17D63, size: 0x8, addend: 0x0, symName: __ZNKSt3__112basic_stringIcNS_11char_traitsIcEENS_9allocatorIcEEE16__get_short_sizeB8ue170006Ev, symObjAddr: 0x6DE8, symBinAddr: 0x100007C94, symSize: 0x34 }
  - { offsetInCU: 0x17D89, offset: 0x17D89, size: 0x8, addend: 0x0, symName: __ZNSt3__110unique_ptrI7MonsterNS_14default_deleteIS1_EEED2B8ue170006Ev, symObjAddr: 0x6E1C, symBinAddr: 0x100007CC8, symSize: 0x30 }
  - { offsetInCU: 0x17DB3, offset: 0x17DB3, size: 0x8, addend: 0x0, symName: __ZNSt3__110unique_ptrI7MonsterNS_14default_deleteIS1_EEE5resetB8ue170006EPS1_, symObjAddr: 0x6E4C, symBinAddr: 0x100007CF8, symSize: 0x78 }
  - { offsetInCU: 0x17DF7, offset: 0x17DF7, size: 0x8, addend: 0x0, symName: __ZNSt3__117__compressed_pairIP7MonsterNS_14default_deleteIS1_EEE5firstB8ue170006Ev, symObjAddr: 0x6EC4, symBinAddr: 0x100007D70, symSize: 0x24 }
  - { offsetInCU: 0x17E1D, offset: 0x17E1D, size: 0x8, addend: 0x0, symName: __ZNSt3__117__compressed_pairIP7MonsterNS_14default_deleteIS1_EEE6secondB8ue170006Ev, symObjAddr: 0x6EE8, symBinAddr: 0x100007D94, symSize: 0x24 }
  - { offsetInCU: 0x17E43, offset: 0x17E43, size: 0x8, addend: 0x0, symName: __ZNKSt3__114default_deleteI7MonsterEclB8ue170006EPS1_, symObjAddr: 0x6F0C, symBinAddr: 0x100007DB8, symSize: 0x4C }
  - { offsetInCU: 0x17E77, offset: 0x17E77, size: 0x8, addend: 0x0, symName: __ZNSt3__122__compressed_pair_elemIP7MonsterLi0ELb0EE5__getB8ue170006Ev, symObjAddr: 0x6F58, symBinAddr: 0x100007E04, symSize: 0x14 }
  - { offsetInCU: 0x17E9D, offset: 0x17E9D, size: 0x8, addend: 0x0, symName: __ZNSt3__122__compressed_pair_elemINS_14default_deleteI7MonsterEELi1ELb1EE5__getB8ue170006Ev, symObjAddr: 0x6F6C, symBinAddr: 0x100007E18, symSize: 0x14 }
  - { offsetInCU: 0x17EC3, offset: 0x17EC3, size: 0x8, addend: 0x0, symName: __ZNSt3__110unique_ptrI7MonsterNS_14default_deleteIS1_EEEC1B8ue170006EOS4_, symObjAddr: 0x6F80, symBinAddr: 0x100007E2C, symSize: 0x34 }
  - { offsetInCU: 0x17EFB, offset: 0x17EFB, size: 0x8, addend: 0x0, symName: __ZNSt3__110unique_ptrI9EncounterNS_14default_deleteIS1_EEEC1B8ue170006ILb1EvEEPS1_, symObjAddr: 0x6FB4, symBinAddr: 0x100007E60, symSize: 0x34 }
  - { offsetInCU: 0x17F3E, offset: 0x17F3E, size: 0x8, addend: 0x0, symName: __ZNSt3__110unique_ptrI7MonsterNS_14default_deleteIS1_EEEC2B8ue170006EOS4_, symObjAddr: 0x6FE8, symBinAddr: 0x100007E94, symSize: 0x60 }
  - { offsetInCU: 0x17F76, offset: 0x17F76, size: 0x8, addend: 0x0, symName: __ZNSt3__110unique_ptrI7MonsterNS_14default_deleteIS1_EEE7releaseB8ue170006Ev, symObjAddr: 0x7048, symBinAddr: 0x100007EF4, symSize: 0x44 }
  - { offsetInCU: 0x17FAB, offset: 0x17FAB, size: 0x8, addend: 0x0, symName: __ZNSt3__110unique_ptrI7MonsterNS_14default_deleteIS1_EEE11get_deleterB8ue170006Ev, symObjAddr: 0x708C, symBinAddr: 0x100007F38, symSize: 0x24 }
  - { offsetInCU: 0x17FDB, offset: 0x17FDB, size: 0x8, addend: 0x0, symName: __ZNSt3__117__compressed_pairIP7MonsterNS_14default_deleteIS1_EEEC1B8ue170006IS2_S4_EEOT_OT0_, symObjAddr: 0x70B0, symBinAddr: 0x100007F5C, symSize: 0x3C }
  - { offsetInCU: 0x18033, offset: 0x18033, size: 0x8, addend: 0x0, symName: __ZNSt3__117__compressed_pairIP7MonsterNS_14default_deleteIS1_EEEC2B8ue170006IS2_S4_EEOT_OT0_, symObjAddr: 0x70EC, symBinAddr: 0x100007F98, symSize: 0x44 }
  - { offsetInCU: 0x1808B, offset: 0x1808B, size: 0x8, addend: 0x0, symName: __ZNSt3__122__compressed_pair_elemIP7MonsterLi0ELb0EEC2B8ue170006IS2_vEEOT_, symObjAddr: 0x7130, symBinAddr: 0x100007FDC, symSize: 0x24 }
  - { offsetInCU: 0x180CD, offset: 0x180CD, size: 0x8, addend: 0x0, symName: __ZNSt3__122__compressed_pair_elemINS_14default_deleteI7MonsterEELi1ELb1EEC2B8ue170006IS3_vEEOT_, symObjAddr: 0x7154, symBinAddr: 0x100008000, symSize: 0x18 }
  - { offsetInCU: 0x1810F, offset: 0x1810F, size: 0x8, addend: 0x0, symName: __ZNSt3__110unique_ptrI9EncounterNS_14default_deleteIS1_EEEC2B8ue170006ILb1EvEEPS1_, symObjAddr: 0x716C, symBinAddr: 0x100008018, symSize: 0x44 }
  - { offsetInCU: 0x18157, offset: 0x18157, size: 0x8, addend: 0x0, symName: __ZNSt3__117__compressed_pairIP9EncounterNS_14default_deleteIS1_EEEC1B8ue170006IRS2_NS_16__value_init_tagEEEOT_OT0_, symObjAddr: 0x71B0, symBinAddr: 0x10000805C, symSize: 0x3C }
  - { offsetInCU: 0x181AF, offset: 0x181AF, size: 0x8, addend: 0x0, symName: __ZNSt3__117__compressed_pairIP9EncounterNS_14default_deleteIS1_EEEC2B8ue170006IRS2_NS_16__value_init_tagEEEOT_OT0_, symObjAddr: 0x71EC, symBinAddr: 0x100008098, symSize: 0x40 }
  - { offsetInCU: 0x18207, offset: 0x18207, size: 0x8, addend: 0x0, symName: __ZNSt3__122__compressed_pair_elemIP9EncounterLi0ELb0EEC2B8ue170006IRS2_vEEOT_, symObjAddr: 0x722C, symBinAddr: 0x1000080D8, symSize: 0x24 }
  - { offsetInCU: 0x18249, offset: 0x18249, size: 0x8, addend: 0x0, symName: __ZNSt3__122__compressed_pair_elemINS_14default_deleteI9EncounterEELi1ELb1EEC2B8ue170006ENS_16__value_init_tagE, symObjAddr: 0x7250, symBinAddr: 0x1000080FC, symSize: 0x14 }
  - { offsetInCU: 0x1827E, offset: 0x1827E, size: 0x8, addend: 0x0, symName: __ZNSt3__110unique_ptrI9EncounterNS_14default_deleteIS1_EEED2B8ue170006Ev, symObjAddr: 0x7264, symBinAddr: 0x100008110, symSize: 0x30 }
  - { offsetInCU: 0x182A8, offset: 0x182A8, size: 0x8, addend: 0x0, symName: __ZNSt3__110unique_ptrI9EncounterNS_14default_deleteIS1_EEE5resetB8ue170006EPS1_, symObjAddr: 0x7294, symBinAddr: 0x100008140, symSize: 0x78 }
  - { offsetInCU: 0x182EC, offset: 0x182EC, size: 0x8, addend: 0x0, symName: __ZNSt3__117__compressed_pairIP9EncounterNS_14default_deleteIS1_EEE5firstB8ue170006Ev, symObjAddr: 0x730C, symBinAddr: 0x1000081B8, symSize: 0x24 }
  - { offsetInCU: 0x18312, offset: 0x18312, size: 0x8, addend: 0x0, symName: __ZNSt3__117__compressed_pairIP9EncounterNS_14default_deleteIS1_EEE6secondB8ue170006Ev, symObjAddr: 0x7330, symBinAddr: 0x1000081DC, symSize: 0x24 }
  - { offsetInCU: 0x18338, offset: 0x18338, size: 0x8, addend: 0x0, symName: __ZNKSt3__114default_deleteI9EncounterEclB8ue170006EPS1_, symObjAddr: 0x7354, symBinAddr: 0x100008200, symSize: 0x4C }
  - { offsetInCU: 0x1836C, offset: 0x1836C, size: 0x8, addend: 0x0, symName: __ZNSt3__122__compressed_pair_elemIP9EncounterLi0ELb0EE5__getB8ue170006Ev, symObjAddr: 0x73A0, symBinAddr: 0x10000824C, symSize: 0x14 }
  - { offsetInCU: 0x18392, offset: 0x18392, size: 0x8, addend: 0x0, symName: __ZNSt3__122__compressed_pair_elemINS_14default_deleteI9EncounterEELi1ELb1EE5__getB8ue170006Ev, symObjAddr: 0x73B4, symBinAddr: 0x100008260, symSize: 0x14 }
  - { offsetInCU: 0x183B8, offset: 0x183B8, size: 0x8, addend: 0x0, symName: __ZNSt3__16vectorINS_10unique_ptrI5EventNS_14default_deleteIS2_EEEENS_9allocatorIS5_EEE9__end_capB8ue170006Ev, symObjAddr: 0x73C8, symBinAddr: 0x100008274, symSize: 0x28 }
  - { offsetInCU: 0x183DE, offset: 0x183DE, size: 0x8, addend: 0x0, symName: __ZNSt3__16vectorINS_10unique_ptrI5EventNS_14default_deleteIS2_EEEENS_9allocatorIS5_EEE22__construct_one_at_endB8ue170006IJNS1_I9EncounterNS3_ISA_EEEEEEEvDpOT_, symObjAddr: 0x73F0, symBinAddr: 0x10000829C, symSize: 0x90 }
  - { offsetInCU: 0x1842D, offset: 0x1842D, size: 0x8, addend: 0x0, symName: __ZNSt3__16vectorINS_10unique_ptrI5EventNS_14default_deleteIS2_EEEENS_9allocatorIS5_EEE24__emplace_back_slow_pathIJNS1_I9EncounterNS3_ISA_EEEEEEEvDpOT_, symObjAddr: 0x7480, symBinAddr: 0x10000832C, symSize: 0xD8 }
  - { offsetInCU: 0x1848D, offset: 0x1848D, size: 0x8, addend: 0x0, symName: __ZNSt3__16vectorINS_10unique_ptrI5EventNS_14default_deleteIS2_EEEENS_9allocatorIS5_EEE4backB8ue170006Ev, symObjAddr: 0x7558, symBinAddr: 0x100008404, symSize: 0x1C }
  - { offsetInCU: 0x184B3, offset: 0x184B3, size: 0x8, addend: 0x0, symName: __ZNSt3__117__compressed_pairIPNS_10unique_ptrI5EventNS_14default_deleteIS2_EEEENS_9allocatorIS5_EEE5firstB8ue170006Ev, symObjAddr: 0x7574, symBinAddr: 0x100008420, symSize: 0x24 }
  - { offsetInCU: 0x184D9, offset: 0x184D9, size: 0x8, addend: 0x0, symName: __ZNSt3__122__compressed_pair_elemIPNS_10unique_ptrI5EventNS_14default_deleteIS2_EEEELi0ELb0EE5__getB8ue170006Ev, symObjAddr: 0x7598, symBinAddr: 0x100008444, symSize: 0x14 }
  - { offsetInCU: 0x18518, offset: 0x18518, size: 0x8, addend: 0x0, symName: __ZNSt3__16vectorINS_10unique_ptrI5EventNS_14default_deleteIS2_EEEENS_9allocatorIS5_EEE21_ConstructTransactionC1B8ue170006ERS8_m, symObjAddr: 0x75AC, symBinAddr: 0x100008458, symSize: 0x3C }
  - { offsetInCU: 0x18560, offset: 0x18560, size: 0x8, addend: 0x0, symName: __ZNSt3__116allocator_traitsINS_9allocatorINS_10unique_ptrI5EventNS_14default_deleteIS3_EEEEEEE9constructB8ue170006IS6_JNS2_I9EncounterNS4_ISA_EEEEEvEEvRS7_PT_DpOT0_, symObjAddr: 0x75E8, symBinAddr: 0x100008494, symSize: 0x34 }
  - { offsetInCU: 0x185B7, offset: 0x185B7, size: 0x8, addend: 0x0, symName: __ZNSt3__16vectorINS_10unique_ptrI5EventNS_14default_deleteIS2_EEEENS_9allocatorIS5_EEE21_ConstructTransactionD1B8ue170006Ev, symObjAddr: 0x761C, symBinAddr: 0x1000084C8, symSize: 0x2C }
  - { offsetInCU: 0x185E1, offset: 0x185E1, size: 0x8, addend: 0x0, symName: __ZNSt3__16vectorINS_10unique_ptrI5EventNS_14default_deleteIS2_EEEENS_9allocatorIS5_EEE21_ConstructTransactionC2B8ue170006ERS8_m, symObjAddr: 0x7648, symBinAddr: 0x1000084F4, symSize: 0x44 }
  - { offsetInCU: 0x18629, offset: 0x18629, size: 0x8, addend: 0x0, symName: __ZNSt3__19allocatorINS_10unique_ptrI5EventNS_14default_deleteIS2_EEEEE9constructB8ue170006IS5_JNS1_I9EncounterNS3_IS8_EEEEEEEvPT_DpOT0_, symObjAddr: 0x768C, symBinAddr: 0x100008538, symSize: 0x30 }
  - { offsetInCU: 0x1867F, offset: 0x1867F, size: 0x8, addend: 0x0, symName: __ZNSt3__110unique_ptrI5EventNS_14default_deleteIS1_EEEC1B8ue170006I9EncounterNS2_IS6_EEvvEEONS0_IT_T0_EE, symObjAddr: 0x76BC, symBinAddr: 0x100008568, symSize: 0x34 }
  - { offsetInCU: 0x186CB, offset: 0x186CB, size: 0x8, addend: 0x0, symName: __ZNSt3__110unique_ptrI5EventNS_14default_deleteIS1_EEEC2B8ue170006I9EncounterNS2_IS6_EEvvEEONS0_IT_T0_EE, symObjAddr: 0x76F0, symBinAddr: 0x10000859C, symSize: 0x60 }
  - { offsetInCU: 0x18717, offset: 0x18717, size: 0x8, addend: 0x0, symName: __ZNSt3__110unique_ptrI9EncounterNS_14default_deleteIS1_EEE7releaseB8ue170006Ev, symObjAddr: 0x7750, symBinAddr: 0x1000085FC, symSize: 0x44 }
  - { offsetInCU: 0x1874C, offset: 0x1874C, size: 0x8, addend: 0x0, symName: __ZNSt3__110unique_ptrI9EncounterNS_14default_deleteIS1_EEE11get_deleterB8ue170006Ev, symObjAddr: 0x7794, symBinAddr: 0x100008640, symSize: 0x24 }
  - { offsetInCU: 0x1877C, offset: 0x1877C, size: 0x8, addend: 0x0, symName: __ZNSt3__117__compressed_pairIP5EventNS_14default_deleteIS1_EEEC1B8ue170006IP9EncounterNS3_IS7_EEEEOT_OT0_, symObjAddr: 0x77B8, symBinAddr: 0x100008664, symSize: 0x3C }
  - { offsetInCU: 0x187D4, offset: 0x187D4, size: 0x8, addend: 0x0, symName: __ZNSt3__117__compressed_pairIP5EventNS_14default_deleteIS1_EEEC2B8ue170006IP9EncounterNS3_IS7_EEEEOT_OT0_, symObjAddr: 0x77F4, symBinAddr: 0x1000086A0, symSize: 0x44 }
  - { offsetInCU: 0x1882C, offset: 0x1882C, size: 0x8, addend: 0x0, symName: __ZNSt3__122__compressed_pair_elemIP5EventLi0ELb0EEC2B8ue170006IP9EncountervEEOT_, symObjAddr: 0x7838, symBinAddr: 0x1000086E4, symSize: 0x24 }
  - { offsetInCU: 0x1886E, offset: 0x1886E, size: 0x8, addend: 0x0, symName: __ZNSt3__122__compressed_pair_elemINS_14default_deleteI5EventEELi1ELb1EEC2B8ue170006INS1_I9EncounterEEvEEOT_, symObjAddr: 0x785C, symBinAddr: 0x100008708, symSize: 0x38 }
  - { offsetInCU: 0x188B0, offset: 0x188B0, size: 0x8, addend: 0x0, symName: __ZNSt3__114default_deleteI5EventEC2B8ue170006I9EncounterEERKNS0_IT_EEPNS_9enable_ifIXsr14is_convertibleIPS5_PS1_EE5valueEvE4typeE, symObjAddr: 0x7894, symBinAddr: 0x100008740, symSize: 0x1C }
  - { offsetInCU: 0x188F9, offset: 0x188F9, size: 0x8, addend: 0x0, symName: __ZNSt3__16vectorINS_10unique_ptrI5EventNS_14default_deleteIS2_EEEENS_9allocatorIS5_EEE21_ConstructTransactionD2B8ue170006Ev, symObjAddr: 0x78B0, symBinAddr: 0x10000875C, symSize: 0x20 }
  - { offsetInCU: 0x18923, offset: 0x18923, size: 0x8, addend: 0x0, symName: __ZNKSt3__16vectorINS_10unique_ptrI5EventNS_14default_deleteIS2_EEEENS_9allocatorIS5_EEE11__recommendB8ue170006Em, symObjAddr: 0x78D0, symBinAddr: 0x10000877C, symSize: 0xB4 }
  - { offsetInCU: 0x18978, offset: 0x18978, size: 0x8, addend: 0x0, symName: __ZNSt3__114__split_bufferINS_10unique_ptrI5EventNS_14default_deleteIS2_EEEERNS_9allocatorIS5_EEEC1EmmS8_, symObjAddr: 0x7984, symBinAddr: 0x100008830, symSize: 0x44 }
  - { offsetInCU: 0x189CE, offset: 0x189CE, size: 0x8, addend: 0x0, symName: __ZNSt3__114__split_bufferINS_10unique_ptrI5EventNS_14default_deleteIS2_EEEERNS_9allocatorIS5_EEED1Ev, symObjAddr: 0x7AD8, symBinAddr: 0x100008984, symSize: 0x2C }
  - { offsetInCU: 0x189FA, offset: 0x189FA, size: 0x8, addend: 0x0, symName: __ZNKSt3__16vectorINS_10unique_ptrI5EventNS_14default_deleteIS2_EEEENS_9allocatorIS5_EEE8max_sizeEv, symObjAddr: 0x7B04, symBinAddr: 0x1000089B0, symSize: 0x60 }
  - { offsetInCU: 0x18A22, offset: 0x18A22, size: 0x8, addend: 0x0, symName: __ZNKSt3__16vectorINS_10unique_ptrI5EventNS_14default_deleteIS2_EEEENS_9allocatorIS5_EEE20__throw_length_errorB8ue170006Ev, symObjAddr: 0x7B64, symBinAddr: 0x100008A10, symSize: 0x1C }
  - { offsetInCU: 0x18A52, offset: 0x18A52, size: 0x8, addend: 0x0, symName: __ZNSt3__116allocator_traitsINS_9allocatorINS_10unique_ptrI5EventNS_14default_deleteIS3_EEEEEEE8max_sizeB8ue170006IS7_vEEmRKS7_, symObjAddr: 0x7B80, symBinAddr: 0x100008A2C, symSize: 0x24 }
  - { offsetInCU: 0x18A80, offset: 0x18A80, size: 0x8, addend: 0x0, symName: __ZNKSt3__16vectorINS_10unique_ptrI5EventNS_14default_deleteIS2_EEEENS_9allocatorIS5_EEE7__allocB8ue170006Ev, symObjAddr: 0x7BA4, symBinAddr: 0x100008A50, symSize: 0x28 }
  - { offsetInCU: 0x18AA6, offset: 0x18AA6, size: 0x8, addend: 0x0, symName: __ZNKSt3__19allocatorINS_10unique_ptrI5EventNS_14default_deleteIS2_EEEEE8max_sizeB8ue170006Ev, symObjAddr: 0x7BCC, symBinAddr: 0x100008A78, symSize: 0x14 }
  - { offsetInCU: 0x18ACC, offset: 0x18ACC, size: 0x8, addend: 0x0, symName: __ZNKSt3__117__compressed_pairIPNS_10unique_ptrI5EventNS_14default_deleteIS2_EEEENS_9allocatorIS5_EEE6secondB8ue170006Ev, symObjAddr: 0x7BE0, symBinAddr: 0x100008A8C, symSize: 0x24 }
  - { offsetInCU: 0x18AF2, offset: 0x18AF2, size: 0x8, addend: 0x0, symName: __ZNKSt3__122__compressed_pair_elemINS_9allocatorINS_10unique_ptrI5EventNS_14default_deleteIS3_EEEEEELi1ELb1EE5__getB8ue170006Ev, symObjAddr: 0x7C04, symBinAddr: 0x100008AB0, symSize: 0x14 }
  - { offsetInCU: 0x18B18, offset: 0x18B18, size: 0x8, addend: 0x0, symName: __ZNSt3__114__split_bufferINS_10unique_ptrI5EventNS_14default_deleteIS2_EEEERNS_9allocatorIS5_EEEC2EmmS8_, symObjAddr: 0x7C18, symBinAddr: 0x100008AC4, symSize: 0xD4 }
  - { offsetInCU: 0x18B8B, offset: 0x18B8B, size: 0x8, addend: 0x0, symName: __ZNSt3__117__compressed_pairIPNS_10unique_ptrI5EventNS_14default_deleteIS2_EEEERNS_9allocatorIS5_EEEC1B8ue170006IDnS9_EEOT_OT0_, symObjAddr: 0x7CEC, symBinAddr: 0x100008B98, symSize: 0x3C }
  - { offsetInCU: 0x18BE3, offset: 0x18BE3, size: 0x8, addend: 0x0, symName: __ZNSt3__114__split_bufferINS_10unique_ptrI5EventNS_14default_deleteIS2_EEEERNS_9allocatorIS5_EEE7__allocB8ue170006Ev, symObjAddr: 0x7D68, symBinAddr: 0x100008C14, symSize: 0x28 }
  - { offsetInCU: 0x18C09, offset: 0x18C09, size: 0x8, addend: 0x0, symName: __ZNSt3__114__split_bufferINS_10unique_ptrI5EventNS_14default_deleteIS2_EEEERNS_9allocatorIS5_EEE9__end_capB8ue170006Ev, symObjAddr: 0x7D90, symBinAddr: 0x100008C3C, symSize: 0x28 }
  - { offsetInCU: 0x18C2F, offset: 0x18C2F, size: 0x8, addend: 0x0, symName: __ZNSt3__117__compressed_pairIPNS_10unique_ptrI5EventNS_14default_deleteIS2_EEEERNS_9allocatorIS5_EEEC2B8ue170006IDnS9_EEOT_OT0_, symObjAddr: 0x7DB8, symBinAddr: 0x100008C64, symSize: 0x48 }
  - { offsetInCU: 0x18C87, offset: 0x18C87, size: 0x8, addend: 0x0, symName: __ZNSt3__122__compressed_pair_elemIRNS_9allocatorINS_10unique_ptrI5EventNS_14default_deleteIS3_EEEEEELi1ELb0EEC2B8ue170006IS8_vEEOT_, symObjAddr: 0x7E00, symBinAddr: 0x100008CAC, symSize: 0x20 }
  - { offsetInCU: 0x18CC9, offset: 0x18CC9, size: 0x8, addend: 0x0, symName: __ZNSt3__19allocatorINS_10unique_ptrI5EventNS_14default_deleteIS2_EEEEE8allocateB8ue170006Em, symObjAddr: 0x7E20, symBinAddr: 0x100008CCC, symSize: 0x58 }
  - { offsetInCU: 0x18CFD, offset: 0x18CFD, size: 0x8, addend: 0x0, symName: __ZNSt3__117__compressed_pairIPNS_10unique_ptrI5EventNS_14default_deleteIS2_EEEERNS_9allocatorIS5_EEE6secondB8ue170006Ev, symObjAddr: 0x7E78, symBinAddr: 0x100008D24, symSize: 0x28 }
  - { offsetInCU: 0x18D23, offset: 0x18D23, size: 0x8, addend: 0x0, symName: __ZNSt3__122__compressed_pair_elemIRNS_9allocatorINS_10unique_ptrI5EventNS_14default_deleteIS3_EEEEEELi1ELb0EE5__getB8ue170006Ev, symObjAddr: 0x7EA0, symBinAddr: 0x100008D4C, symSize: 0x18 }
  - { offsetInCU: 0x18D49, offset: 0x18D49, size: 0x8, addend: 0x0, symName: __ZNSt3__117__compressed_pairIPNS_10unique_ptrI5EventNS_14default_deleteIS2_EEEERNS_9allocatorIS5_EEE5firstB8ue170006Ev, symObjAddr: 0x7EB8, symBinAddr: 0x100008D64, symSize: 0x24 }
  - { offsetInCU: 0x18D6F, offset: 0x18D6F, size: 0x8, addend: 0x0, symName: __ZNSt3__116reverse_iteratorIPNS_10unique_ptrI5EventNS_14default_deleteIS2_EEEEEC1B8ue170006ES6_, symObjAddr: 0x8008, symBinAddr: 0x100008EB4, symSize: 0x34 }
  - { offsetInCU: 0x18DA7, offset: 0x18DA7, size: 0x8, addend: 0x0, symName: __ZNKSt3__116reverse_iteratorIPNS_10unique_ptrI5EventNS_14default_deleteIS2_EEEEE4baseB8ue170006Ev, symObjAddr: 0x803C, symBinAddr: 0x100008EE8, symSize: 0x18 }
  - { offsetInCU: 0x18DCD, offset: 0x18DCD, size: 0x8, addend: 0x0, symName: __ZNKSt3__16vectorINS_10unique_ptrI5EventNS_14default_deleteIS2_EEEENS_9allocatorIS5_EEE14__annotate_newB8ue170006Em, symObjAddr: 0x8090, symBinAddr: 0x100008F3C, symSize: 0xAC }
  - { offsetInCU: 0x18E02, offset: 0x18E02, size: 0x8, addend: 0x0, symName: __ZNSt3__129_AllocatorDestroyRangeReverseINS_9allocatorINS_10unique_ptrI5EventNS_14default_deleteIS3_EEEEEENS_16reverse_iteratorIPS6_EEEC1B8ue170006ERS7_RSA_SD_, symObjAddr: 0x8188, symBinAddr: 0x100009034, symSize: 0x44 }
  - { offsetInCU: 0x18E59, offset: 0x18E59, size: 0x8, addend: 0x0, symName: __ZNSt3__116allocator_traitsINS_9allocatorINS_10unique_ptrI5EventNS_14default_deleteIS3_EEEEEEE9constructB8ue170006IS6_JS6_EvEEvRS7_PT_DpOT0_, symObjAddr: 0x8214, symBinAddr: 0x1000090C0, symSize: 0x34 }
  - { offsetInCU: 0x18EB0, offset: 0x18EB0, size: 0x8, addend: 0x0, symName: __ZNKSt3__116reverse_iteratorIPNS_10unique_ptrI5EventNS_14default_deleteIS2_EEEEEdeB8ue170006Ev, symObjAddr: 0x826C, symBinAddr: 0x100009118, symSize: 0x28 }
  - { offsetInCU: 0x18EE4, offset: 0x18EE4, size: 0x8, addend: 0x0, symName: __ZNSt3__116reverse_iteratorIPNS_10unique_ptrI5EventNS_14default_deleteIS2_EEEEEppB8ue170006Ev, symObjAddr: 0x8294, symBinAddr: 0x100009140, symSize: 0x20 }
  - { offsetInCU: 0x18F0A, offset: 0x18F0A, size: 0x8, addend: 0x0, symName: __ZNSt3__128__exception_guard_exceptionsINS_29_AllocatorDestroyRangeReverseINS_9allocatorINS_10unique_ptrI5EventNS_14default_deleteIS4_EEEEEENS_16reverse_iteratorIPS7_EEEEE10__completeB8ue170006Ev, symObjAddr: 0x82B4, symBinAddr: 0x100009160, symSize: 0x1C }
  - { offsetInCU: 0x18F30, offset: 0x18F30, size: 0x8, addend: 0x0, symName: __ZNSt3__128__exception_guard_exceptionsINS_29_AllocatorDestroyRangeReverseINS_9allocatorINS_10unique_ptrI5EventNS_14default_deleteIS4_EEEEEENS_16reverse_iteratorIPS7_EEEEED1B8ue170006Ev, symObjAddr: 0x82D0, symBinAddr: 0x10000917C, symSize: 0x2C }
  - { offsetInCU: 0x18F5A, offset: 0x18F5A, size: 0x8, addend: 0x0, symName: __ZNSt3__128__exception_guard_exceptionsINS_29_AllocatorDestroyRangeReverseINS_9allocatorINS_10unique_ptrI5EventNS_14default_deleteIS4_EEEEEENS_16reverse_iteratorIPS7_EEEEEC1B8ue170006ESC_, symObjAddr: 0x82FC, symBinAddr: 0x1000091A8, symSize: 0x34 }
  - { offsetInCU: 0x18F93, offset: 0x18F93, size: 0x8, addend: 0x0, symName: __ZNSt3__128__exception_guard_exceptionsINS_29_AllocatorDestroyRangeReverseINS_9allocatorINS_10unique_ptrI5EventNS_14default_deleteIS4_EEEEEENS_16reverse_iteratorIPS7_EEEEEC2B8ue170006ESC_, symObjAddr: 0x8330, symBinAddr: 0x1000091DC, symSize: 0x30 }
  - { offsetInCU: 0x18FCC, offset: 0x18FCC, size: 0x8, addend: 0x0, symName: __ZNSt3__129_AllocatorDestroyRangeReverseINS_9allocatorINS_10unique_ptrI5EventNS_14default_deleteIS3_EEEEEENS_16reverse_iteratorIPS6_EEEC2B8ue170006ERS7_RSA_SD_, symObjAddr: 0x8360, symBinAddr: 0x10000920C, symSize: 0x38 }
  - { offsetInCU: 0x19023, offset: 0x19023, size: 0x8, addend: 0x0, symName: __ZNSt3__19allocatorINS_10unique_ptrI5EventNS_14default_deleteIS2_EEEEE9constructB8ue170006IS5_JS5_EEEvPT_DpOT0_, symObjAddr: 0x8398, symBinAddr: 0x100009244, symSize: 0x30 }
  - { offsetInCU: 0x19079, offset: 0x19079, size: 0x8, addend: 0x0, symName: __ZNSt3__110unique_ptrI5EventNS_14default_deleteIS1_EEEC1B8ue170006EOS4_, symObjAddr: 0x83C8, symBinAddr: 0x100009274, symSize: 0x34 }
  - { offsetInCU: 0x190B1, offset: 0x190B1, size: 0x8, addend: 0x0, symName: __ZNSt3__110unique_ptrI5EventNS_14default_deleteIS1_EEEC2B8ue170006EOS4_, symObjAddr: 0x83FC, symBinAddr: 0x1000092A8, symSize: 0x60 }
  - { offsetInCU: 0x190E9, offset: 0x190E9, size: 0x8, addend: 0x0, symName: __ZNSt3__110unique_ptrI5EventNS_14default_deleteIS1_EEE7releaseB8ue170006Ev, symObjAddr: 0x845C, symBinAddr: 0x100009308, symSize: 0x44 }
  - { offsetInCU: 0x1911E, offset: 0x1911E, size: 0x8, addend: 0x0, symName: __ZNSt3__110unique_ptrI5EventNS_14default_deleteIS1_EEE11get_deleterB8ue170006Ev, symObjAddr: 0x84A0, symBinAddr: 0x10000934C, symSize: 0x24 }
  - { offsetInCU: 0x1914E, offset: 0x1914E, size: 0x8, addend: 0x0, symName: __ZNSt3__117__compressed_pairIP5EventNS_14default_deleteIS1_EEEC1B8ue170006IS2_S4_EEOT_OT0_, symObjAddr: 0x84C4, symBinAddr: 0x100009370, symSize: 0x3C }
  - { offsetInCU: 0x191A6, offset: 0x191A6, size: 0x8, addend: 0x0, symName: __ZNSt3__117__compressed_pairIP5EventNS_14default_deleteIS1_EEEC2B8ue170006IS2_S4_EEOT_OT0_, symObjAddr: 0x8500, symBinAddr: 0x1000093AC, symSize: 0x44 }
  - { offsetInCU: 0x191FE, offset: 0x191FE, size: 0x8, addend: 0x0, symName: __ZNSt3__122__compressed_pair_elemIP5EventLi0ELb0EEC2B8ue170006IS2_vEEOT_, symObjAddr: 0x8544, symBinAddr: 0x1000093F0, symSize: 0x24 }
  - { offsetInCU: 0x19240, offset: 0x19240, size: 0x8, addend: 0x0, symName: __ZNSt3__122__compressed_pair_elemINS_14default_deleteI5EventEELi1ELb1EEC2B8ue170006IS3_vEEOT_, symObjAddr: 0x8568, symBinAddr: 0x100009414, symSize: 0x18 }
  - { offsetInCU: 0x19287, offset: 0x19287, size: 0x8, addend: 0x0, symName: __ZNSt3__119__to_address_helperINS_16reverse_iteratorIPNS_10unique_ptrI5EventNS_14default_deleteIS3_EEEEEEvE6__callB8ue170006ERKS8_, symObjAddr: 0x8580, symBinAddr: 0x10000942C, symSize: 0x38 }
  - { offsetInCU: 0x192AA, offset: 0x192AA, size: 0x8, addend: 0x0, symName: __ZNKSt3__116reverse_iteratorIPNS_10unique_ptrI5EventNS_14default_deleteIS2_EEEEEptB8ue170006Ev, symObjAddr: 0x85B8, symBinAddr: 0x100009464, symSize: 0x24 }
  - { offsetInCU: 0x192D0, offset: 0x192D0, size: 0x8, addend: 0x0, symName: __ZNSt3__128__exception_guard_exceptionsINS_29_AllocatorDestroyRangeReverseINS_9allocatorINS_10unique_ptrI5EventNS_14default_deleteIS4_EEEEEENS_16reverse_iteratorIPS7_EEEEED2B8ue170006Ev, symObjAddr: 0x85DC, symBinAddr: 0x100009488, symSize: 0x50 }
  - { offsetInCU: 0x192FA, offset: 0x192FA, size: 0x8, addend: 0x0, symName: __ZNKSt3__129_AllocatorDestroyRangeReverseINS_9allocatorINS_10unique_ptrI5EventNS_14default_deleteIS3_EEEEEENS_16reverse_iteratorIPS6_EEEclB8ue170006Ev, symObjAddr: 0x862C, symBinAddr: 0x1000094D8, symSize: 0xB4 }
  - { offsetInCU: 0x19321, offset: 0x19321, size: 0x8, addend: 0x0, symName: __ZNSt3__116reverse_iteratorINS0_IPNS_10unique_ptrI5EventNS_14default_deleteIS2_EEEEEEEC1B8ue170006ES7_, symObjAddr: 0x8750, symBinAddr: 0x1000095FC, symSize: 0x3C }
  - { offsetInCU: 0x19359, offset: 0x19359, size: 0x8, addend: 0x0, symName: __ZNSt3__116reverse_iteratorINS0_IPNS_10unique_ptrI5EventNS_14default_deleteIS2_EEEEEEEppB8ue170006Ev, symObjAddr: 0x8810, symBinAddr: 0x1000096BC, symSize: 0x30 }
  - { offsetInCU: 0x1937F, offset: 0x1937F, size: 0x8, addend: 0x0, symName: __ZNKSt3__116reverse_iteratorINS0_IPNS_10unique_ptrI5EventNS_14default_deleteIS2_EEEEEEE4baseB8ue170006Ev, symObjAddr: 0x8840, symBinAddr: 0x1000096EC, symSize: 0x24 }
  - { offsetInCU: 0x193AA, offset: 0x193AA, size: 0x8, addend: 0x0, symName: __ZNSt3__119__to_address_helperINS_16reverse_iteratorINS1_IPNS_10unique_ptrI5EventNS_14default_deleteIS3_EEEEEEEEvE6__callB8ue170006ERKS9_, symObjAddr: 0x8864, symBinAddr: 0x100009710, symSize: 0x38 }
  - { offsetInCU: 0x193CD, offset: 0x193CD, size: 0x8, addend: 0x0, symName: __ZNKSt3__116reverse_iteratorINS0_IPNS_10unique_ptrI5EventNS_14default_deleteIS2_EEEEEEEptB8ue170006Ev, symObjAddr: 0x889C, symBinAddr: 0x100009748, symSize: 0x24 }
  - { offsetInCU: 0x193F3, offset: 0x193F3, size: 0x8, addend: 0x0, symName: __ZNKSt3__116reverse_iteratorINS0_IPNS_10unique_ptrI5EventNS_14default_deleteIS2_EEEEEEEdeB8ue170006Ev, symObjAddr: 0x88C0, symBinAddr: 0x10000976C, symSize: 0x34 }
  - { offsetInCU: 0x19427, offset: 0x19427, size: 0x8, addend: 0x0, symName: __ZNSt3__116reverse_iteratorIPNS_10unique_ptrI5EventNS_14default_deleteIS2_EEEEEmmB8ue170006Ev, symObjAddr: 0x88F4, symBinAddr: 0x1000097A0, symSize: 0x20 }
  - { offsetInCU: 0x1944D, offset: 0x1944D, size: 0x8, addend: 0x0, symName: __ZNSt3__116reverse_iteratorINS0_IPNS_10unique_ptrI5EventNS_14default_deleteIS2_EEEEEEEC2B8ue170006ES7_, symObjAddr: 0x8914, symBinAddr: 0x1000097C0, symSize: 0x2C }
  - { offsetInCU: 0x19485, offset: 0x19485, size: 0x8, addend: 0x0, symName: __ZNSt3__116reverse_iteratorIPNS_10unique_ptrI5EventNS_14default_deleteIS2_EEEEEC2B8ue170006ES6_, symObjAddr: 0x8940, symBinAddr: 0x1000097EC, symSize: 0x28 }
  - { offsetInCU: 0x194BD, offset: 0x194BD, size: 0x8, addend: 0x0, symName: __ZNSt3__114__split_bufferINS_10unique_ptrI5EventNS_14default_deleteIS2_EEEERNS_9allocatorIS5_EEED2Ev, symObjAddr: 0x8968, symBinAddr: 0x100009814, symSize: 0x8C }
  - { offsetInCU: 0x194E9, offset: 0x194E9, size: 0x8, addend: 0x0, symName: __ZNSt3__114__split_bufferINS_10unique_ptrI5EventNS_14default_deleteIS2_EEEERNS_9allocatorIS5_EEE5clearB8ue170006Ev, symObjAddr: 0x89F4, symBinAddr: 0x1000098A0, symSize: 0x28 }
  - { offsetInCU: 0x1950F, offset: 0x1950F, size: 0x8, addend: 0x0, symName: __ZNKSt3__114__split_bufferINS_10unique_ptrI5EventNS_14default_deleteIS2_EEEERNS_9allocatorIS5_EEE8capacityB8ue170006Ev, symObjAddr: 0x8A1C, symBinAddr: 0x1000098C8, symSize: 0x40 }
  - { offsetInCU: 0x19535, offset: 0x19535, size: 0x8, addend: 0x0, symName: __ZNSt3__114__split_bufferINS_10unique_ptrI5EventNS_14default_deleteIS2_EEEERNS_9allocatorIS5_EEE17__destruct_at_endB8ue170006EPS5_, symObjAddr: 0x8A5C, symBinAddr: 0x100009908, symSize: 0x2C }
  - { offsetInCU: 0x19569, offset: 0x19569, size: 0x8, addend: 0x0, symName: __ZNSt3__114__split_bufferINS_10unique_ptrI5EventNS_14default_deleteIS2_EEEERNS_9allocatorIS5_EEE17__destruct_at_endB8ue170006EPS5_NS_17integral_constantIbLb0EEE, symObjAddr: 0x8A88, symBinAddr: 0x100009934, symSize: 0x80 }
  - { offsetInCU: 0x195AA, offset: 0x195AA, size: 0x8, addend: 0x0, symName: __ZNKSt3__114__split_bufferINS_10unique_ptrI5EventNS_14default_deleteIS2_EEEERNS_9allocatorIS5_EEE9__end_capB8ue170006Ev, symObjAddr: 0x8B08, symBinAddr: 0x1000099B4, symSize: 0x28 }
  - { offsetInCU: 0x195D0, offset: 0x195D0, size: 0x8, addend: 0x0, symName: __ZNKSt3__117__compressed_pairIPNS_10unique_ptrI5EventNS_14default_deleteIS2_EEEERNS_9allocatorIS5_EEE5firstB8ue170006Ev, symObjAddr: 0x8B30, symBinAddr: 0x1000099DC, symSize: 0x24 }
  - { offsetInCU: 0x195F6, offset: 0x195F6, size: 0x8, addend: 0x0, symName: __ZN15PotionsMerchantC1Ev, symObjAddr: 0x8B54, symBinAddr: 0x100009A00, symSize: 0x2C }
  - { offsetInCU: 0x19622, offset: 0x19622, size: 0x8, addend: 0x0, symName: __ZNSt3__110unique_ptrI15PotionsMerchantNS_14default_deleteIS1_EEEC1B8ue170006ILb1EvEEPS1_, symObjAddr: 0x8B80, symBinAddr: 0x100009A2C, symSize: 0x34 }
  - { offsetInCU: 0x19665, offset: 0x19665, size: 0x8, addend: 0x0, symName: __ZN15PotionsMerchantC2Ev, symObjAddr: 0x8BB4, symBinAddr: 0x100009A60, symSize: 0x50 }
  - { offsetInCU: 0x19691, offset: 0x19691, size: 0x8, addend: 0x0, symName: __ZNSt3__110unique_ptrI15PotionsMerchantNS_14default_deleteIS1_EEEC2B8ue170006ILb1EvEEPS1_, symObjAddr: 0x8C04, symBinAddr: 0x100009AB0, symSize: 0x44 }
  - { offsetInCU: 0x196D4, offset: 0x196D4, size: 0x8, addend: 0x0, symName: __ZNSt3__117__compressed_pairIP15PotionsMerchantNS_14default_deleteIS1_EEEC1B8ue170006IRS2_NS_16__value_init_tagEEEOT_OT0_, symObjAddr: 0x8C48, symBinAddr: 0x100009AF4, symSize: 0x3C }
  - { offsetInCU: 0x1972C, offset: 0x1972C, size: 0x8, addend: 0x0, symName: __ZNSt3__117__compressed_pairIP15PotionsMerchantNS_14default_deleteIS1_EEEC2B8ue170006IRS2_NS_16__value_init_tagEEEOT_OT0_, symObjAddr: 0x8C84, symBinAddr: 0x100009B30, symSize: 0x40 }
  - { offsetInCU: 0x19784, offset: 0x19784, size: 0x8, addend: 0x0, symName: __ZNSt3__122__compressed_pair_elemIP15PotionsMerchantLi0ELb0EEC2B8ue170006IRS2_vEEOT_, symObjAddr: 0x8CC4, symBinAddr: 0x100009B70, symSize: 0x24 }
  - { offsetInCU: 0x197C6, offset: 0x197C6, size: 0x8, addend: 0x0, symName: __ZNSt3__122__compressed_pair_elemINS_14default_deleteI15PotionsMerchantEELi1ELb1EEC2B8ue170006ENS_16__value_init_tagE, symObjAddr: 0x8CE8, symBinAddr: 0x100009B94, symSize: 0x14 }
  - { offsetInCU: 0x197FB, offset: 0x197FB, size: 0x8, addend: 0x0, symName: __ZNSt3__110unique_ptrI15PotionsMerchantNS_14default_deleteIS1_EEED2B8ue170006Ev, symObjAddr: 0x8CFC, symBinAddr: 0x100009BA8, symSize: 0x30 }
  - { offsetInCU: 0x19825, offset: 0x19825, size: 0x8, addend: 0x0, symName: __ZNSt3__110unique_ptrI15PotionsMerchantNS_14default_deleteIS1_EEE5resetB8ue170006EPS1_, symObjAddr: 0x8D2C, symBinAddr: 0x100009BD8, symSize: 0x78 }
  - { offsetInCU: 0x19869, offset: 0x19869, size: 0x8, addend: 0x0, symName: __ZNSt3__117__compressed_pairIP15PotionsMerchantNS_14default_deleteIS1_EEE5firstB8ue170006Ev, symObjAddr: 0x8DA4, symBinAddr: 0x100009C50, symSize: 0x24 }
  - { offsetInCU: 0x1988F, offset: 0x1988F, size: 0x8, addend: 0x0, symName: __ZNSt3__117__compressed_pairIP15PotionsMerchantNS_14default_deleteIS1_EEE6secondB8ue170006Ev, symObjAddr: 0x8DC8, symBinAddr: 0x100009C74, symSize: 0x24 }
  - { offsetInCU: 0x198B5, offset: 0x198B5, size: 0x8, addend: 0x0, symName: __ZNKSt3__114default_deleteI15PotionsMerchantEclB8ue170006EPS1_, symObjAddr: 0x8DEC, symBinAddr: 0x100009C98, symSize: 0x4C }
  - { offsetInCU: 0x198E9, offset: 0x198E9, size: 0x8, addend: 0x0, symName: __ZNSt3__122__compressed_pair_elemIP15PotionsMerchantLi0ELb0EE5__getB8ue170006Ev, symObjAddr: 0x8E38, symBinAddr: 0x100009CE4, symSize: 0x14 }
  - { offsetInCU: 0x1990F, offset: 0x1990F, size: 0x8, addend: 0x0, symName: __ZNSt3__122__compressed_pair_elemINS_14default_deleteI15PotionsMerchantEELi1ELb1EE5__getB8ue170006Ev, symObjAddr: 0x8E4C, symBinAddr: 0x100009CF8, symSize: 0x14 }
  - { offsetInCU: 0x19935, offset: 0x19935, size: 0x8, addend: 0x0, symName: __ZNSt3__16vectorINS_10unique_ptrI5EventNS_14default_deleteIS2_EEEENS_9allocatorIS5_EEE22__construct_one_at_endB8ue170006IJNS1_I15PotionsMerchantNS3_ISA_EEEEEEEvDpOT_, symObjAddr: 0x8E60, symBinAddr: 0x100009D0C, symSize: 0x90 }
  - { offsetInCU: 0x19984, offset: 0x19984, size: 0x8, addend: 0x0, symName: __ZNSt3__16vectorINS_10unique_ptrI5EventNS_14default_deleteIS2_EEEENS_9allocatorIS5_EEE24__emplace_back_slow_pathIJNS1_I15PotionsMerchantNS3_ISA_EEEEEEEvDpOT_, symObjAddr: 0x8EF0, symBinAddr: 0x100009D9C, symSize: 0xD8 }
  - { offsetInCU: 0x199E4, offset: 0x199E4, size: 0x8, addend: 0x0, symName: __ZNSt3__116allocator_traitsINS_9allocatorINS_10unique_ptrI5EventNS_14default_deleteIS3_EEEEEEE9constructB8ue170006IS6_JNS2_I15PotionsMerchantNS4_ISA_EEEEEvEEvRS7_PT_DpOT0_, symObjAddr: 0x8FC8, symBinAddr: 0x100009E74, symSize: 0x34 }
  - { offsetInCU: 0x19A3B, offset: 0x19A3B, size: 0x8, addend: 0x0, symName: __ZNSt3__19allocatorINS_10unique_ptrI5EventNS_14default_deleteIS2_EEEEE9constructB8ue170006IS5_JNS1_I15PotionsMerchantNS3_IS8_EEEEEEEvPT_DpOT0_, symObjAddr: 0x8FFC, symBinAddr: 0x100009EA8, symSize: 0x30 }
  - { offsetInCU: 0x19A91, offset: 0x19A91, size: 0x8, addend: 0x0, symName: __ZNSt3__110unique_ptrI5EventNS_14default_deleteIS1_EEEC1B8ue170006I15PotionsMerchantNS2_IS6_EEvvEEONS0_IT_T0_EE, symObjAddr: 0x902C, symBinAddr: 0x100009ED8, symSize: 0x34 }
  - { offsetInCU: 0x19ADD, offset: 0x19ADD, size: 0x8, addend: 0x0, symName: __ZNSt3__110unique_ptrI5EventNS_14default_deleteIS1_EEEC2B8ue170006I15PotionsMerchantNS2_IS6_EEvvEEONS0_IT_T0_EE, symObjAddr: 0x9060, symBinAddr: 0x100009F0C, symSize: 0x60 }
  - { offsetInCU: 0x19B29, offset: 0x19B29, size: 0x8, addend: 0x0, symName: __ZNSt3__110unique_ptrI15PotionsMerchantNS_14default_deleteIS1_EEE7releaseB8ue170006Ev, symObjAddr: 0x90C0, symBinAddr: 0x100009F6C, symSize: 0x44 }
  - { offsetInCU: 0x19B5E, offset: 0x19B5E, size: 0x8, addend: 0x0, symName: __ZNSt3__110unique_ptrI15PotionsMerchantNS_14default_deleteIS1_EEE11get_deleterB8ue170006Ev, symObjAddr: 0x9104, symBinAddr: 0x100009FB0, symSize: 0x24 }
  - { offsetInCU: 0x19B8E, offset: 0x19B8E, size: 0x8, addend: 0x0, symName: __ZNSt3__117__compressed_pairIP5EventNS_14default_deleteIS1_EEEC1B8ue170006IP15PotionsMerchantNS3_IS7_EEEEOT_OT0_, symObjAddr: 0x9128, symBinAddr: 0x100009FD4, symSize: 0x3C }
  - { offsetInCU: 0x19BE6, offset: 0x19BE6, size: 0x8, addend: 0x0, symName: __ZNSt3__117__compressed_pairIP5EventNS_14default_deleteIS1_EEEC2B8ue170006IP15PotionsMerchantNS3_IS7_EEEEOT_OT0_, symObjAddr: 0x9164, symBinAddr: 0x10000A010, symSize: 0x44 }
  - { offsetInCU: 0x19C3E, offset: 0x19C3E, size: 0x8, addend: 0x0, symName: __ZNSt3__122__compressed_pair_elemIP5EventLi0ELb0EEC2B8ue170006IP15PotionsMerchantvEEOT_, symObjAddr: 0x91A8, symBinAddr: 0x10000A054, symSize: 0x24 }
  - { offsetInCU: 0x19C80, offset: 0x19C80, size: 0x8, addend: 0x0, symName: __ZNSt3__122__compressed_pair_elemINS_14default_deleteI5EventEELi1ELb1EEC2B8ue170006INS1_I15PotionsMerchantEEvEEOT_, symObjAddr: 0x91CC, symBinAddr: 0x10000A078, symSize: 0x38 }
  - { offsetInCU: 0x19CC2, offset: 0x19CC2, size: 0x8, addend: 0x0, symName: __ZNSt3__114default_deleteI5EventEC2B8ue170006I15PotionsMerchantEERKNS0_IT_EEPNS_9enable_ifIXsr14is_convertibleIPS5_PS1_EE5valueEvE4typeE, symObjAddr: 0x9204, symBinAddr: 0x10000A0B0, symSize: 0x1C }
  - { offsetInCU: 0x19D0B, offset: 0x19D0B, size: 0x8, addend: 0x0, symName: __ZN12SolarEclipseC1Ev, symObjAddr: 0x9220, symBinAddr: 0x10000A0CC, symSize: 0x2C }
  - { offsetInCU: 0x19D37, offset: 0x19D37, size: 0x8, addend: 0x0, symName: __ZNSt3__110unique_ptrI12SolarEclipseNS_14default_deleteIS1_EEEC1B8ue170006ILb1EvEEPS1_, symObjAddr: 0x924C, symBinAddr: 0x10000A0F8, symSize: 0x34 }
  - { offsetInCU: 0x19D7A, offset: 0x19D7A, size: 0x8, addend: 0x0, symName: __ZN12SolarEclipseC2Ev, symObjAddr: 0x9280, symBinAddr: 0x10000A12C, symSize: 0x50 }
  - { offsetInCU: 0x19DA6, offset: 0x19DA6, size: 0x8, addend: 0x0, symName: __ZNSt3__110unique_ptrI12SolarEclipseNS_14default_deleteIS1_EEEC2B8ue170006ILb1EvEEPS1_, symObjAddr: 0x92D0, symBinAddr: 0x10000A17C, symSize: 0x44 }
  - { offsetInCU: 0x19DE9, offset: 0x19DE9, size: 0x8, addend: 0x0, symName: __ZNSt3__117__compressed_pairIP12SolarEclipseNS_14default_deleteIS1_EEEC1B8ue170006IRS2_NS_16__value_init_tagEEEOT_OT0_, symObjAddr: 0x9314, symBinAddr: 0x10000A1C0, symSize: 0x3C }
  - { offsetInCU: 0x19E41, offset: 0x19E41, size: 0x8, addend: 0x0, symName: __ZNSt3__117__compressed_pairIP12SolarEclipseNS_14default_deleteIS1_EEEC2B8ue170006IRS2_NS_16__value_init_tagEEEOT_OT0_, symObjAddr: 0x9350, symBinAddr: 0x10000A1FC, symSize: 0x40 }
  - { offsetInCU: 0x19E99, offset: 0x19E99, size: 0x8, addend: 0x0, symName: __ZNSt3__122__compressed_pair_elemIP12SolarEclipseLi0ELb0EEC2B8ue170006IRS2_vEEOT_, symObjAddr: 0x9390, symBinAddr: 0x10000A23C, symSize: 0x24 }
  - { offsetInCU: 0x19EDB, offset: 0x19EDB, size: 0x8, addend: 0x0, symName: __ZNSt3__122__compressed_pair_elemINS_14default_deleteI12SolarEclipseEELi1ELb1EEC2B8ue170006ENS_16__value_init_tagE, symObjAddr: 0x93B4, symBinAddr: 0x10000A260, symSize: 0x14 }
  - { offsetInCU: 0x19F10, offset: 0x19F10, size: 0x8, addend: 0x0, symName: __ZNSt3__110unique_ptrI12SolarEclipseNS_14default_deleteIS1_EEED2B8ue170006Ev, symObjAddr: 0x93C8, symBinAddr: 0x10000A274, symSize: 0x30 }
  - { offsetInCU: 0x19F3A, offset: 0x19F3A, size: 0x8, addend: 0x0, symName: __ZNSt3__110unique_ptrI12SolarEclipseNS_14default_deleteIS1_EEE5resetB8ue170006EPS1_, symObjAddr: 0x93F8, symBinAddr: 0x10000A2A4, symSize: 0x78 }
  - { offsetInCU: 0x19F7E, offset: 0x19F7E, size: 0x8, addend: 0x0, symName: __ZNSt3__117__compressed_pairIP12SolarEclipseNS_14default_deleteIS1_EEE5firstB8ue170006Ev, symObjAddr: 0x9470, symBinAddr: 0x10000A31C, symSize: 0x24 }
  - { offsetInCU: 0x19FA4, offset: 0x19FA4, size: 0x8, addend: 0x0, symName: __ZNSt3__117__compressed_pairIP12SolarEclipseNS_14default_deleteIS1_EEE6secondB8ue170006Ev, symObjAddr: 0x9494, symBinAddr: 0x10000A340, symSize: 0x24 }
  - { offsetInCU: 0x19FCA, offset: 0x19FCA, size: 0x8, addend: 0x0, symName: __ZNKSt3__114default_deleteI12SolarEclipseEclB8ue170006EPS1_, symObjAddr: 0x94B8, symBinAddr: 0x10000A364, symSize: 0x4C }
  - { offsetInCU: 0x19FFE, offset: 0x19FFE, size: 0x8, addend: 0x0, symName: __ZNSt3__122__compressed_pair_elemIP12SolarEclipseLi0ELb0EE5__getB8ue170006Ev, symObjAddr: 0x9504, symBinAddr: 0x10000A3B0, symSize: 0x14 }
  - { offsetInCU: 0x1A024, offset: 0x1A024, size: 0x8, addend: 0x0, symName: __ZNSt3__122__compressed_pair_elemINS_14default_deleteI12SolarEclipseEELi1ELb1EE5__getB8ue170006Ev, symObjAddr: 0x9518, symBinAddr: 0x10000A3C4, symSize: 0x14 }
  - { offsetInCU: 0x1A04A, offset: 0x1A04A, size: 0x8, addend: 0x0, symName: __ZNSt3__16vectorINS_10unique_ptrI5EventNS_14default_deleteIS2_EEEENS_9allocatorIS5_EEE22__construct_one_at_endB8ue170006IJNS1_I12SolarEclipseNS3_ISA_EEEEEEEvDpOT_, symObjAddr: 0x952C, symBinAddr: 0x10000A3D8, symSize: 0x90 }
  - { offsetInCU: 0x1A099, offset: 0x1A099, size: 0x8, addend: 0x0, symName: __ZNSt3__16vectorINS_10unique_ptrI5EventNS_14default_deleteIS2_EEEENS_9allocatorIS5_EEE24__emplace_back_slow_pathIJNS1_I12SolarEclipseNS3_ISA_EEEEEEEvDpOT_, symObjAddr: 0x95BC, symBinAddr: 0x10000A468, symSize: 0xD8 }
  - { offsetInCU: 0x1A0F9, offset: 0x1A0F9, size: 0x8, addend: 0x0, symName: __ZNSt3__116allocator_traitsINS_9allocatorINS_10unique_ptrI5EventNS_14default_deleteIS3_EEEEEEE9constructB8ue170006IS6_JNS2_I12SolarEclipseNS4_ISA_EEEEEvEEvRS7_PT_DpOT0_, symObjAddr: 0x9694, symBinAddr: 0x10000A540, symSize: 0x34 }
  - { offsetInCU: 0x1A150, offset: 0x1A150, size: 0x8, addend: 0x0, symName: __ZNSt3__19allocatorINS_10unique_ptrI5EventNS_14default_deleteIS2_EEEEE9constructB8ue170006IS5_JNS1_I12SolarEclipseNS3_IS8_EEEEEEEvPT_DpOT0_, symObjAddr: 0x96C8, symBinAddr: 0x10000A574, symSize: 0x30 }
  - { offsetInCU: 0x1A1A6, offset: 0x1A1A6, size: 0x8, addend: 0x0, symName: __ZNSt3__110unique_ptrI5EventNS_14default_deleteIS1_EEEC1B8ue170006I12SolarEclipseNS2_IS6_EEvvEEONS0_IT_T0_EE, symObjAddr: 0x96F8, symBinAddr: 0x10000A5A4, symSize: 0x34 }
  - { offsetInCU: 0x1A1F2, offset: 0x1A1F2, size: 0x8, addend: 0x0, symName: __ZNSt3__110unique_ptrI5EventNS_14default_deleteIS1_EEEC2B8ue170006I12SolarEclipseNS2_IS6_EEvvEEONS0_IT_T0_EE, symObjAddr: 0x972C, symBinAddr: 0x10000A5D8, symSize: 0x60 }
  - { offsetInCU: 0x1A23E, offset: 0x1A23E, size: 0x8, addend: 0x0, symName: __ZNSt3__110unique_ptrI12SolarEclipseNS_14default_deleteIS1_EEE7releaseB8ue170006Ev, symObjAddr: 0x978C, symBinAddr: 0x10000A638, symSize: 0x44 }
  - { offsetInCU: 0x1A273, offset: 0x1A273, size: 0x8, addend: 0x0, symName: __ZNSt3__110unique_ptrI12SolarEclipseNS_14default_deleteIS1_EEE11get_deleterB8ue170006Ev, symObjAddr: 0x97D0, symBinAddr: 0x10000A67C, symSize: 0x24 }
  - { offsetInCU: 0x1A2A3, offset: 0x1A2A3, size: 0x8, addend: 0x0, symName: __ZNSt3__117__compressed_pairIP5EventNS_14default_deleteIS1_EEEC1B8ue170006IP12SolarEclipseNS3_IS7_EEEEOT_OT0_, symObjAddr: 0x97F4, symBinAddr: 0x10000A6A0, symSize: 0x3C }
  - { offsetInCU: 0x1A2FB, offset: 0x1A2FB, size: 0x8, addend: 0x0, symName: __ZNSt3__117__compressed_pairIP5EventNS_14default_deleteIS1_EEEC2B8ue170006IP12SolarEclipseNS3_IS7_EEEEOT_OT0_, symObjAddr: 0x9830, symBinAddr: 0x10000A6DC, symSize: 0x44 }
  - { offsetInCU: 0x1A353, offset: 0x1A353, size: 0x8, addend: 0x0, symName: __ZNSt3__122__compressed_pair_elemIP5EventLi0ELb0EEC2B8ue170006IP12SolarEclipsevEEOT_, symObjAddr: 0x9874, symBinAddr: 0x10000A720, symSize: 0x24 }
  - { offsetInCU: 0x1A395, offset: 0x1A395, size: 0x8, addend: 0x0, symName: __ZNSt3__122__compressed_pair_elemINS_14default_deleteI5EventEELi1ELb1EEC2B8ue170006INS1_I12SolarEclipseEEvEEOT_, symObjAddr: 0x9898, symBinAddr: 0x10000A744, symSize: 0x38 }
  - { offsetInCU: 0x1A3D7, offset: 0x1A3D7, size: 0x8, addend: 0x0, symName: __ZNSt3__114default_deleteI5EventEC2B8ue170006I12SolarEclipseEERKNS0_IT_EEPNS_9enable_ifIXsr14is_convertibleIPS5_PS1_EE5valueEvE4typeE, symObjAddr: 0x98D0, symBinAddr: 0x10000A77C, symSize: 0x1C }
  - { offsetInCU: 0x1A420, offset: 0x1A420, size: 0x8, addend: 0x0, symName: __ZNSt3__110unique_ptrI7MonsterNS_14default_deleteIS1_EEEC2B8ue170006ILb1EvEEPS1_, symObjAddr: 0x98EC, symBinAddr: 0x10000A798, symSize: 0x44 }
  - { offsetInCU: 0x1A463, offset: 0x1A463, size: 0x8, addend: 0x0, symName: __ZNSt3__117__compressed_pairIP7MonsterNS_14default_deleteIS1_EEEC1B8ue170006IRS2_NS_16__value_init_tagEEEOT_OT0_, symObjAddr: 0x9930, symBinAddr: 0x10000A7DC, symSize: 0x3C }
  - { offsetInCU: 0x1A4BB, offset: 0x1A4BB, size: 0x8, addend: 0x0, symName: __ZNSt3__117__compressed_pairIP7MonsterNS_14default_deleteIS1_EEEC2B8ue170006IRS2_NS_16__value_init_tagEEEOT_OT0_, symObjAddr: 0x996C, symBinAddr: 0x10000A818, symSize: 0x40 }
  - { offsetInCU: 0x1A513, offset: 0x1A513, size: 0x8, addend: 0x0, symName: __ZNSt3__122__compressed_pair_elemIP7MonsterLi0ELb0EEC2B8ue170006IRS2_vEEOT_, symObjAddr: 0x99AC, symBinAddr: 0x10000A858, symSize: 0x24 }
  - { offsetInCU: 0x1A555, offset: 0x1A555, size: 0x8, addend: 0x0, symName: __ZNSt3__122__compressed_pair_elemINS_14default_deleteI7MonsterEELi1ELb1EEC2B8ue170006ENS_16__value_init_tagE, symObjAddr: 0x99D0, symBinAddr: 0x10000A87C, symSize: 0x14 }
  - { offsetInCU: 0x1A58A, offset: 0x1A58A, size: 0x8, addend: 0x0, symName: __ZNSt3__111char_traitsIcE2eqEcc, symObjAddr: 0x99E4, symBinAddr: 0x10000A890, symSize: 0x28 }
  - { offsetInCU: 0x1A5BB, offset: 0x1A5BB, size: 0x8, addend: 0x0, symName: __ZNKSt3__117__compressed_pairIP5EventNS_14default_deleteIS1_EEE5firstB8ue170006Ev, symObjAddr: 0x9A0C, symBinAddr: 0x10000A8B8, symSize: 0x24 }
  - { offsetInCU: 0x1A5E1, offset: 0x1A5E1, size: 0x8, addend: 0x0, symName: __ZNKSt3__122__compressed_pair_elemIP5EventLi0ELb0EE5__getB8ue170006Ev, symObjAddr: 0x9A30, symBinAddr: 0x10000A8DC, symSize: 0x14 }
  - { offsetInCU: 0x1A607, offset: 0x1A607, size: 0x8, addend: 0x0, symName: __ZNSt3__16vectorINS_10unique_ptrI5EventNS_14default_deleteIS2_EEEENS_9allocatorIS5_EEE11__make_iterB8ue170006EPS5_, symObjAddr: 0x9A44, symBinAddr: 0x10000A8F0, symSize: 0x30 }
  - { offsetInCU: 0x1A63C, offset: 0x1A63C, size: 0x8, addend: 0x0, symName: __ZNSt3__111__wrap_iterIPNS_10unique_ptrI5EventNS_14default_deleteIS2_EEEEEC1B8ue170006ES6_, symObjAddr: 0x9A74, symBinAddr: 0x10000A920, symSize: 0x34 }
  - { offsetInCU: 0x1A674, offset: 0x1A674, size: 0x8, addend: 0x0, symName: __ZNSt3__111__wrap_iterIPNS_10unique_ptrI5EventNS_14default_deleteIS2_EEEEEC2B8ue170006ES6_, symObjAddr: 0x9AA8, symBinAddr: 0x10000A954, symSize: 0x20 }
  - { offsetInCU: 0x1A6AC, offset: 0x1A6AC, size: 0x8, addend: 0x0, symName: __ZNSt3__16vectorI6PlayerNS_9allocatorIS1_EEE11__make_iterB8ue170006EPS1_, symObjAddr: 0x9AC8, symBinAddr: 0x10000A974, symSize: 0x30 }
  - { offsetInCU: 0x1A6E1, offset: 0x1A6E1, size: 0x8, addend: 0x0, symName: __ZNSt3__111__wrap_iterIP6PlayerEC1B8ue170006ES2_, symObjAddr: 0x9AF8, symBinAddr: 0x10000A9A4, symSize: 0x34 }
  - { offsetInCU: 0x1A719, offset: 0x1A719, size: 0x8, addend: 0x0, symName: __ZNSt3__111__wrap_iterIP6PlayerEC2B8ue170006ES2_, symObjAddr: 0x9B2C, symBinAddr: 0x10000A9D8, symSize: 0x20 }
  - { offsetInCU: 0x1A751, offset: 0x1A751, size: 0x8, addend: 0x0, symName: __ZNSt3__16vectorI6PlayerNS_9allocatorIS1_EEEC2ERKS4_, symObjAddr: 0x9B4C, symBinAddr: 0x10000A9F8, symSize: 0x94 }
  - { offsetInCU: 0x1A78C, offset: 0x1A78C, size: 0x8, addend: 0x0, symName: __ZNSt3__116allocator_traitsINS_9allocatorI6PlayerEEE37select_on_container_copy_constructionB8ue170006IS3_vvEES3_RKS3_, symObjAddr: 0x9BE0, symBinAddr: 0x10000AA8C, symSize: 0x10 }
  - { offsetInCU: 0x1A7C0, offset: 0x1A7C0, size: 0x8, addend: 0x0, symName: __ZNSt3__117__compressed_pairIP6PlayerNS_9allocatorIS1_EEEC1B8ue170006IDnS4_EEOT_OT0_, symObjAddr: 0x9BF0, symBinAddr: 0x10000AA9C, symSize: 0x3C }
  - { offsetInCU: 0x1A818, offset: 0x1A818, size: 0x8, addend: 0x0, symName: __ZNSt3__16vectorI6PlayerNS_9allocatorIS1_EEE16__init_with_sizeB8ue170006IPS1_S6_EEvT_T0_m, symObjAddr: 0x9C2C, symBinAddr: 0x10000AAD8, symSize: 0xB8 }
  - { offsetInCU: 0x1A88C, offset: 0x1A88C, size: 0x8, addend: 0x0, symName: __ZNSt3__117__compressed_pairIP6PlayerNS_9allocatorIS1_EEEC2B8ue170006IDnS4_EEOT_OT0_, symObjAddr: 0x9CE4, symBinAddr: 0x10000AB90, symSize: 0x44 }
  - { offsetInCU: 0x1A8E4, offset: 0x1A8E4, size: 0x8, addend: 0x0, symName: __ZNSt3__122__compressed_pair_elemINS_9allocatorI6PlayerEELi1ELb1EEC2B8ue170006IS3_vEEOT_, symObjAddr: 0x9D28, symBinAddr: 0x10000ABD4, symSize: 0x18 }
  - { offsetInCU: 0x1A926, offset: 0x1A926, size: 0x8, addend: 0x0, symName: __ZNSt3__16vectorI6PlayerNS_9allocatorIS1_EEE11__vallocateB8ue170006Em, symObjAddr: 0x9D80, symBinAddr: 0x10000AC2C, symSize: 0xB4 }
  - { offsetInCU: 0x1A96A, offset: 0x1A96A, size: 0x8, addend: 0x0, symName: __ZNSt3__16vectorI6PlayerNS_9allocatorIS1_EEE18__construct_at_endIPS1_S6_EEvT_T0_m, symObjAddr: 0x9E34, symBinAddr: 0x10000ACE0, symSize: 0x8C }
  - { offsetInCU: 0x1A9E0, offset: 0x1A9E0, size: 0x8, addend: 0x0, symName: __ZNSt3__128__exception_guard_exceptionsINS_6vectorI6PlayerNS_9allocatorIS2_EEE16__destroy_vectorEE10__completeB8ue170006Ev, symObjAddr: 0x9EC0, symBinAddr: 0x10000AD6C, symSize: 0x1C }
  - { offsetInCU: 0x1AA06, offset: 0x1AA06, size: 0x8, addend: 0x0, symName: __ZNSt3__128__exception_guard_exceptionsINS_6vectorI6PlayerNS_9allocatorIS2_EEE16__destroy_vectorEED1B8ue170006Ev, symObjAddr: 0x9EDC, symBinAddr: 0x10000AD88, symSize: 0x2C }
  - { offsetInCU: 0x1AA30, offset: 0x1AA30, size: 0x8, addend: 0x0, symName: __ZNSt3__128__exception_guard_exceptionsINS_6vectorI6PlayerNS_9allocatorIS2_EEE16__destroy_vectorEEC1B8ue170006ES6_, symObjAddr: 0x9F08, symBinAddr: 0x10000ADB4, symSize: 0x34 }
  - { offsetInCU: 0x1AA68, offset: 0x1AA68, size: 0x8, addend: 0x0, symName: __ZNSt3__128__exception_guard_exceptionsINS_6vectorI6PlayerNS_9allocatorIS2_EEE16__destroy_vectorEEC2B8ue170006ES6_, symObjAddr: 0x9F3C, symBinAddr: 0x10000ADE8, symSize: 0x24 }
  - { offsetInCU: 0x1AABE, offset: 0x1AABE, size: 0x8, addend: 0x0, symName: __ZNSt3__14pairIP6PlayerS2_EC1B8ue170006IS2_S2_LPv0EEEOT_OT0_, symObjAddr: 0xA1CC, symBinAddr: 0x10000B078, symSize: 0x3C }
  - { offsetInCU: 0x1AB1C, offset: 0x1AB1C, size: 0x8, addend: 0x0, symName: __ZNSt3__14pairIP6PlayerS2_EC2B8ue170006IS2_S2_LPv0EEEOT_OT0_, symObjAddr: 0xA208, symBinAddr: 0x10000B0B4, symSize: 0x34 }
  - { offsetInCU: 0x1AB7A, offset: 0x1AB7A, size: 0x8, addend: 0x0, symName: __ZNSt3__129_AllocatorDestroyRangeReverseINS_9allocatorI6PlayerEEPS2_EC1B8ue170006ERS3_RS4_S7_, symObjAddr: 0xA288, symBinAddr: 0x10000B134, symSize: 0x44 }
  - { offsetInCU: 0x1ABD1, offset: 0x1ABD1, size: 0x8, addend: 0x0, symName: __ZNSt3__116allocator_traitsINS_9allocatorI6PlayerEEE9constructB8ue170006IS2_JRS2_EvEEvRS3_PT_DpOT0_, symObjAddr: 0xA2CC, symBinAddr: 0x10000B178, symSize: 0x34 }
  - { offsetInCU: 0x1AC28, offset: 0x1AC28, size: 0x8, addend: 0x0, symName: __ZNSt3__128__exception_guard_exceptionsINS_29_AllocatorDestroyRangeReverseINS_9allocatorI6PlayerEEPS3_EEE10__completeB8ue170006Ev, symObjAddr: 0xA300, symBinAddr: 0x10000B1AC, symSize: 0x1C }
  - { offsetInCU: 0x1AC4E, offset: 0x1AC4E, size: 0x8, addend: 0x0, symName: __ZNSt3__128__exception_guard_exceptionsINS_29_AllocatorDestroyRangeReverseINS_9allocatorI6PlayerEEPS3_EEED1B8ue170006Ev, symObjAddr: 0xA31C, symBinAddr: 0x10000B1C8, symSize: 0x2C }
  - { offsetInCU: 0x1AC78, offset: 0x1AC78, size: 0x8, addend: 0x0, symName: __ZNSt3__128__exception_guard_exceptionsINS_29_AllocatorDestroyRangeReverseINS_9allocatorI6PlayerEEPS3_EEEC1B8ue170006ES6_, symObjAddr: 0xA348, symBinAddr: 0x10000B1F4, symSize: 0x34 }
  - { offsetInCU: 0x1ACB1, offset: 0x1ACB1, size: 0x8, addend: 0x0, symName: __ZNSt3__128__exception_guard_exceptionsINS_29_AllocatorDestroyRangeReverseINS_9allocatorI6PlayerEEPS3_EEEC2B8ue170006ES6_, symObjAddr: 0xA37C, symBinAddr: 0x10000B228, symSize: 0x30 }
  - { offsetInCU: 0x1ACEA, offset: 0x1ACEA, size: 0x8, addend: 0x0, symName: __ZNSt3__129_AllocatorDestroyRangeReverseINS_9allocatorI6PlayerEEPS2_EC2B8ue170006ERS3_RS4_S7_, symObjAddr: 0xA3AC, symBinAddr: 0x10000B258, symSize: 0x38 }
  - { offsetInCU: 0x1AD41, offset: 0x1AD41, size: 0x8, addend: 0x0, symName: __ZNSt3__19allocatorI6PlayerE9constructB8ue170006IS1_JRS1_EEEvPT_DpOT0_, symObjAddr: 0xA3E4, symBinAddr: 0x10000B290, symSize: 0x30 }
  - { offsetInCU: 0x1AD97, offset: 0x1AD97, size: 0x8, addend: 0x0, symName: __ZN6PlayerC1ERKS_, symObjAddr: 0xA414, symBinAddr: 0x10000B2C0, symSize: 0x34 }
  - { offsetInCU: 0x1ADCC, offset: 0x1ADCC, size: 0x8, addend: 0x0, symName: __ZN6PlayerC2ERKS_, symObjAddr: 0xA448, symBinAddr: 0x10000B2F4, symSize: 0x70 }
  - { offsetInCU: 0x1AE01, offset: 0x1AE01, size: 0x8, addend: 0x0, symName: __ZNSt3__128__exception_guard_exceptionsINS_29_AllocatorDestroyRangeReverseINS_9allocatorI6PlayerEEPS3_EEED2B8ue170006Ev, symObjAddr: 0xA4B8, symBinAddr: 0x10000B364, symSize: 0x50 }
  - { offsetInCU: 0x1AE2B, offset: 0x1AE2B, size: 0x8, addend: 0x0, symName: __ZNKSt3__129_AllocatorDestroyRangeReverseINS_9allocatorI6PlayerEEPS2_EclB8ue170006Ev, symObjAddr: 0xA508, symBinAddr: 0x10000B3B4, symSize: 0x68 }
  - { offsetInCU: 0x1AE51, offset: 0x1AE51, size: 0x8, addend: 0x0, symName: __ZNSt3__118__unwrap_iter_implIP6PlayerLb1EE8__unwrapB8ue170006ES2_, symObjAddr: 0xA5E0, symBinAddr: 0x10000B48C, symSize: 0x24 }
  - { offsetInCU: 0x1AE74, offset: 0x1AE74, size: 0x8, addend: 0x0, symName: __ZNSt3__118__unwrap_iter_implIP6PlayerLb1EE8__rewrapB8ue170006ES2_S2_, symObjAddr: 0xA604, symBinAddr: 0x10000B4B0, symSize: 0x58 }
  - { offsetInCU: 0x1AEA5, offset: 0x1AEA5, size: 0x8, addend: 0x0, symName: __ZNSt3__128__exception_guard_exceptionsINS_6vectorI6PlayerNS_9allocatorIS2_EEE16__destroy_vectorEED2B8ue170006Ev, symObjAddr: 0xA65C, symBinAddr: 0x10000B508, symSize: 0x48 }
  - { offsetInCU: 0x1AECF, offset: 0x1AECF, size: 0x8, addend: 0x0, symName: __ZNKSt3__16__lessIvvEclB8ue170006I6PlayerS3_EEbRKT_RKT0_, symObjAddr: 0xAD40, symBinAddr: 0x10000BBEC, symSize: 0x34 }
  - { offsetInCU: 0x1AF23, offset: 0x1AF23, size: 0x8, addend: 0x0, symName: __ZNSt3__18_IterOpsINS_17_ClassicAlgPolicyEE9iter_swapB8ue170006IRP6PlayerS6_EEvOT_OT0_, symObjAddr: 0xAD74, symBinAddr: 0x10000BC20, symSize: 0x34 }
  - { offsetInCU: 0x1AF66, offset: 0x1AF66, size: 0x8, addend: 0x0, symName: __ZNSt3__18_IterOpsINS_17_ClassicAlgPolicyEE9iter_swapB8ue170006IRP6PlayerS5_EEvOT_OT0_, symObjAddr: 0xB364, symBinAddr: 0x10000C210, symSize: 0x34 }
  - { offsetInCU: 0x1AFA9, offset: 0x1AFA9, size: 0x8, addend: 0x0, symName: __ZN6PlayeraSEOS_, symObjAddr: 0xC088, symBinAddr: 0x10000CF34, symSize: 0x70 }
  - { offsetInCU: 0x1AFDA, offset: 0x1AFDA, size: 0x8, addend: 0x0, symName: __ZNSt3__112basic_stringIcNS_11char_traitsIcEENS_9allocatorIcEEEaSB8ue170006EOS5_, symObjAddr: 0xC0F8, symBinAddr: 0x10000CFA4, symSize: 0x34 }
  - { offsetInCU: 0x1B00F, offset: 0x1B00F, size: 0x8, addend: 0x0, symName: __ZNSt3__112basic_stringIcNS_11char_traitsIcEENS_9allocatorIcEEE13__move_assignB8ue170006ERS5_NS_17integral_constantIbLb1EEE, symObjAddr: 0xC12C, symBinAddr: 0x10000CFD8, symSize: 0xC8 }
  - { offsetInCU: 0x1B052, offset: 0x1B052, size: 0x8, addend: 0x0, symName: __ZNSt3__116allocator_traitsINS_9allocatorIcEEE10deallocateB8ue170006ERS2_Pcm, symObjAddr: 0xC1F4, symBinAddr: 0x10000D0A0, symSize: 0x34 }
  - { offsetInCU: 0x1B094, offset: 0x1B094, size: 0x8, addend: 0x0, symName: __ZNSt3__112basic_stringIcNS_11char_traitsIcEENS_9allocatorIcEEE7__allocB8ue170006Ev, symObjAddr: 0xC228, symBinAddr: 0x10000D0D4, symSize: 0x24 }
  - { offsetInCU: 0x1B0BA, offset: 0x1B0BA, size: 0x8, addend: 0x0, symName: __ZNKSt3__112basic_stringIcNS_11char_traitsIcEENS_9allocatorIcEEE14__get_long_capB8ue170006Ev, symObjAddr: 0xC24C, symBinAddr: 0x10000D0F8, symSize: 0x30 }
  - { offsetInCU: 0x1B0E0, offset: 0x1B0E0, size: 0x8, addend: 0x0, symName: __ZNSt3__112basic_stringIcNS_11char_traitsIcEENS_9allocatorIcEEE19__move_assign_allocB8ue170006ERS5_, symObjAddr: 0xC27C, symBinAddr: 0x10000D128, symSize: 0x2C }
  - { offsetInCU: 0x1B115, offset: 0x1B115, size: 0x8, addend: 0x0, symName: __ZNSt3__19allocatorIcE10deallocateB8ue170006EPcm, symObjAddr: 0xC2A8, symBinAddr: 0x10000D154, symSize: 0x40 }
  - { offsetInCU: 0x1B157, offset: 0x1B157, size: 0x8, addend: 0x0, symName: __ZNSt3__117__compressed_pairINS_12basic_stringIcNS_11char_traitsIcEENS_9allocatorIcEEE5__repES5_E6secondB8ue170006Ev, symObjAddr: 0xC2E8, symBinAddr: 0x10000D194, symSize: 0x24 }
  - { offsetInCU: 0x1B17D, offset: 0x1B17D, size: 0x8, addend: 0x0, symName: __ZNSt3__122__compressed_pair_elemINS_9allocatorIcEELi1ELb1EE5__getB8ue170006Ev, symObjAddr: 0xC30C, symBinAddr: 0x10000D1B8, symSize: 0x14 }
  - { offsetInCU: 0x1B1A3, offset: 0x1B1A3, size: 0x8, addend: 0x0, symName: __ZNSt3__112basic_stringIcNS_11char_traitsIcEENS_9allocatorIcEEE19__move_assign_allocB8ue170006ERS5_NS_17integral_constantIbLb1EEE, symObjAddr: 0xC320, symBinAddr: 0x10000D1CC, symSize: 0x38 }
  - { offsetInCU: 0x1B1E4, offset: 0x1B1E4, size: 0x8, addend: 0x0, symName: __ZNSt3__18_IterOpsINS_17_ClassicAlgPolicyEE11__iter_moveB8ue170006IRP6PlayerEENS_9enable_ifIXsr12is_referenceIDTdeclsr3stdE7declvalIRT_EEEEE5valueEDTclsr3stdE4movedeclsr3stdE7declvalIS9_EEEEE4typeEOS8_, symObjAddr: 0xC4F8, symBinAddr: 0x10000D3A4, symSize: 0x28 }
  - { offsetInCU: 0x1B210, offset: 0x1B210, size: 0x8, addend: 0x0, symName: __ZNSt3__18_IterOpsINS_17_ClassicAlgPolicyEE25__validate_iter_referenceB8ue170006IRP6PlayerEEvv, symObjAddr: 0xC520, symBinAddr: 0x10000D3CC, symSize: 0x4 }
  - { offsetInCU: 0x1B22E, offset: 0x1B22E, size: 0x8, addend: 0x0, symName: __ZNSt3__18_IterOpsINS_17_ClassicAlgPolicyEE4nextB8ue170006IP6PlayerEET_S6_S6_, symObjAddr: 0xC524, symBinAddr: 0x10000D3D0, symSize: 0x18 }
  - { offsetInCU: 0x1B265, offset: 0x1B265, size: 0x8, addend: 0x0, symName: __ZNSt3__18_IterOpsINS_17_ClassicAlgPolicyEE9iter_swapB8ue170006IP6PlayerS5_EEvOT_OT0_, symObjAddr: 0xD5AC, symBinAddr: 0x10000E458, symSize: 0x34 }
  - { offsetInCU: 0x1B2C1, offset: 0x1B2C1, size: 0x8, addend: 0x0, symName: __ZNSt3__14pairIP6PlayerbEC1B8ue170006IRS2_RbLPv0EEEOT_OT0_, symObjAddr: 0xD5FC, symBinAddr: 0x10000E4A8, symSize: 0x3C }
  - { offsetInCU: 0x1B31F, offset: 0x1B31F, size: 0x8, addend: 0x0, symName: __ZNSt3__14pairIP6PlayerbEC2B8ue170006IRS2_RbLPv0EEEOT_OT0_, symObjAddr: 0xD638, symBinAddr: 0x10000E4E4, symSize: 0x38 }
  - { offsetInCU: 0x1B37D, offset: 0x1B37D, size: 0x8, addend: 0x0, symName: __ZNSt3__118__unwrap_iter_implINS_11__wrap_iterIP6PlayerEELb1EE8__unwrapB8ue170006ES4_, symObjAddr: 0xD670, symBinAddr: 0x10000E51C, symSize: 0x28 }
  - { offsetInCU: 0x1B3A5, offset: 0x1B3A5, size: 0x8, addend: 0x0, symName: __ZNSt3__119__to_address_helperINS_11__wrap_iterIP6PlayerEEvE6__callB8ue170006ERKS4_, symObjAddr: 0xD6BC, symBinAddr: 0x10000E568, symSize: 0x30 }
  - { offsetInCU: 0x1B3C8, offset: 0x1B3C8, size: 0x8, addend: 0x0, symName: __ZNSt3__114pointer_traitsINS_11__wrap_iterIP6PlayerEEE10to_addressB8ue170006ES4_, symObjAddr: 0xD6EC, symBinAddr: 0x10000E598, symSize: 0x2C }
  - { offsetInCU: 0x1B3EB, offset: 0x1B3EB, size: 0x8, addend: 0x0, symName: __ZNKSt3__16vectorI6PlayerNS_9allocatorIS1_EEE11__make_iterB8ue170006EPKS1_, symObjAddr: 0xD718, symBinAddr: 0x10000E5C4, symSize: 0x30 }
  - { offsetInCU: 0x1B420, offset: 0x1B420, size: 0x8, addend: 0x0, symName: __ZNSt3__111__wrap_iterIPK6PlayerEC1B8ue170006ES3_, symObjAddr: 0xD748, symBinAddr: 0x10000E5F4, symSize: 0x34 }
  - { offsetInCU: 0x1B458, offset: 0x1B458, size: 0x8, addend: 0x0, symName: __ZNSt3__111__wrap_iterIPK6PlayerEC2B8ue170006ES3_, symObjAddr: 0xD77C, symBinAddr: 0x10000E628, symSize: 0x20 }
  - { offsetInCU: 0x3405, offset: 0x1EA9C, size: 0x8, addend: 0x0, symName: __ZNSt3__16copy_nB8ue170006IPKcmPcEENS_9enable_ifIXsr37__has_random_access_iterator_categoryIT_EE5valueET1_E4typeES5_T0_S6_, symObjAddr: 0x26A8, symBinAddr: 0x10000FA84, symSize: 0x44 }
  - { offsetInCU: 0x3FEF, offset: 0x1F686, size: 0x8, addend: 0x0, symName: __ZNSt3__1lsB8ue170006IcNS_11char_traitsIcEENS_9allocatorIcEEEERNS_13basic_ostreamIT_T0_EES9_RKNS_12basic_stringIS6_S7_T1_EE, symObjAddr: 0x1D0, symBinAddr: 0x10000E74C, symSize: 0x4C }
  - { offsetInCU: 0x4047, offset: 0x1F6DE, size: 0x8, addend: 0x0, symName: __ZNSt3__1plB8ue170006IcNS_11char_traitsIcEENS_9allocatorIcEEEENS_12basic_stringIT_T0_T1_EEOS9_PKS6_, symObjAddr: 0xA98, symBinAddr: 0x10000EFC0, symSize: 0x40 }
  - { offsetInCU: 0x409F, offset: 0x1F736, size: 0x8, addend: 0x0, symName: __ZNSt3__1plB8ue170006IcNS_11char_traitsIcEENS_9allocatorIcEEEENS_12basic_stringIT_T0_T1_EEOS9_SA_, symObjAddr: 0xAD8, symBinAddr: 0x10000F000, symSize: 0x40 }
  - { offsetInCU: 0x40F7, offset: 0x1F78E, size: 0x8, addend: 0x0, symName: __ZNSt3__1plB8ue170006IcNS_11char_traitsIcEENS_9allocatorIcEEEENS_12basic_stringIT_T0_T1_EERKS9_PKS6_, symObjAddr: 0xF04, symBinAddr: 0x10000F42C, symSize: 0x11C }
  - { offsetInCU: 0x4198, offset: 0x1F82F, size: 0x8, addend: 0x0, symName: __ZNSt3__112__to_addressB8ue170006IKcEEPT_S3_, symObjAddr: 0x1B6C, symBinAddr: 0x10000F570, symSize: 0x14 }
  - { offsetInCU: 0x4200, offset: 0x1F897, size: 0x8, addend: 0x0, symName: __ZNSt3__14copyB8ue170006IPKcPcEET0_T_S5_S4_, symObjAddr: 0x26EC, symBinAddr: 0x10000FAC8, symSize: 0x40 }
  - { offsetInCU: 0x425A, offset: 0x1F8F1, size: 0x8, addend: 0x0, symName: __ZNSt3__16__copyB8ue170006INS_17_ClassicAlgPolicyEPKcS3_PcEENS_4pairIT0_T2_EES6_T1_S7_, symObjAddr: 0x272C, symBinAddr: 0x10000FB08, symSize: 0x44 }
  - { offsetInCU: 0x42C6, offset: 0x1F95D, size: 0x8, addend: 0x0, symName: __ZNSt3__123__dispatch_copy_or_moveB8ue170006INS_17_ClassicAlgPolicyENS_11__copy_loopIS1_EENS_14__copy_trivialEPKcS6_PcEENS_4pairIT2_T4_EES9_T3_SA_, symObjAddr: 0x2770, symBinAddr: 0x10000FB4C, symSize: 0x44 }
  - { offsetInCU: 0x4344, offset: 0x1F9DB, size: 0x8, addend: 0x0, symName: __ZNSt3__121__unwrap_and_dispatchB8ue170006INS_10__overloadINS_11__copy_loopINS_17_ClassicAlgPolicyEEENS_14__copy_trivialEEEPKcS8_PcLi0EEENS_4pairIT0_T2_EESB_T1_SC_, symObjAddr: 0x27B4, symBinAddr: 0x10000FB90, symSize: 0xB4 }
  - { offsetInCU: 0x43D2, offset: 0x1FA69, size: 0x8, addend: 0x0, symName: __ZNSt3__114__unwrap_rangeB8ue170006IPKcS2_EENS_4pairIT0_S4_EET_S6_, symObjAddr: 0x2868, symBinAddr: 0x10000FC44, symSize: 0x60 }
  - { offsetInCU: 0x4567, offset: 0x1FBFE, size: 0x8, addend: 0x0, symName: __ZNSt3__113__unwrap_iterB8ue170006IPcNS_18__unwrap_iter_implIS1_Lb1EEELi0EEEDTclsrT0_8__unwrapclsr3stdE7declvalIT_EEEES5_, symObjAddr: 0x2910, symBinAddr: 0x10000FCEC, symSize: 0x24 }
  - { offsetInCU: 0x45AB, offset: 0x1FC42, size: 0x8, addend: 0x0, symName: __ZNSt3__19make_pairB8ue170006IPKcPcEENS_4pairINS_18__unwrap_ref_decayIT_E4typeENS5_IT0_E4typeEEEOS6_OS9_, symObjAddr: 0x2934, symBinAddr: 0x10000FD10, symSize: 0x38 }
  - { offsetInCU: 0x45FA, offset: 0x1FC91, size: 0x8, addend: 0x0, symName: __ZNSt3__114__rewrap_rangeB8ue170006IPKcS2_EET_S3_T0_, symObjAddr: 0x296C, symBinAddr: 0x10000FD48, symSize: 0x2C }
  - { offsetInCU: 0x4646, offset: 0x1FCDD, size: 0x8, addend: 0x0, symName: __ZNSt3__113__rewrap_iterB8ue170006IPcS1_NS_18__unwrap_iter_implIS1_Lb1EEEEET_S4_T0_, symObjAddr: 0x2998, symBinAddr: 0x10000FD74, symSize: 0x3C }
  - { offsetInCU: 0x469B, offset: 0x1FD32, size: 0x8, addend: 0x0, symName: __ZNSt3__19make_pairB8ue170006IPKcS2_EENS_4pairINS_18__unwrap_ref_decayIT_E4typeENS4_IT0_E4typeEEEOS5_OS8_, symObjAddr: 0x29D4, symBinAddr: 0x10000FDB0, symSize: 0x38 }
  - { offsetInCU: 0x46EA, offset: 0x1FD81, size: 0x8, addend: 0x0, symName: __ZNSt3__113__unwrap_iterB8ue170006IPKcNS_18__unwrap_iter_implIS2_Lb1EEELi0EEEDTclsrT0_8__unwrapclsr3stdE7declvalIT_EEEES6_, symObjAddr: 0x2A0C, symBinAddr: 0x10000FDE8, symSize: 0x24 }
  - { offsetInCU: 0x4855, offset: 0x1FEEC, size: 0x8, addend: 0x0, symName: __ZNSt3__119__copy_trivial_implB8ue170006IKccEENS_4pairIPT_PT0_EES4_S4_S6_, symObjAddr: 0x2AC4, symBinAddr: 0x10000FEA0, symSize: 0x78 }
  - { offsetInCU: 0x48BD, offset: 0x1FF54, size: 0x8, addend: 0x0, symName: __ZNSt3__119__constexpr_memmoveB8ue170006IcKcLi0EEEPT_S3_PT0_NS_15__element_countE, symObjAddr: 0x2B3C, symBinAddr: 0x10000FF18, symSize: 0x64 }
  - { offsetInCU: 0x492B, offset: 0x1FFC2, size: 0x8, addend: 0x0, symName: __ZNSt3__19make_pairB8ue170006IRPKcPcEENS_4pairINS_18__unwrap_ref_decayIT_E4typeENS6_IT0_E4typeEEEOS7_OSA_, symObjAddr: 0x2BA0, symBinAddr: 0x10000FF7C, symSize: 0x38 }
  - { offsetInCU: 0x49CD, offset: 0x20064, size: 0x8, addend: 0x0, symName: __ZNSt3__113__rewrap_iterB8ue170006IPKcS2_NS_18__unwrap_iter_implIS2_Lb1EEEEET_S5_T0_, symObjAddr: 0x2CDC, symBinAddr: 0x1000100B8, symSize: 0x3C }
  - { offsetInCU: 0x4A22, offset: 0x200B9, size: 0x8, addend: 0x0, symName: __ZNSt3__16fill_nB8ue170006IPcmcEET_S2_T0_RKT1_, symObjAddr: 0x2DA8, symBinAddr: 0x100010184, symSize: 0x44 }
  - { offsetInCU: 0x4A85, offset: 0x2011C, size: 0x8, addend: 0x0, symName: __ZNSt3__18__fill_nB8ue170006IPcmcEET_S2_T0_RKT1_, symObjAddr: 0x2DEC, symBinAddr: 0x1000101C8, symSize: 0x64 }
  - { offsetInCU: 0x4AE8, offset: 0x2017F, size: 0x8, addend: 0x0, symName: __ZNSt3__121__convert_to_integralB8ue170006Em, symObjAddr: 0x2E50, symBinAddr: 0x10001022C, symSize: 0x14 }
  - { offsetInCU: 0x6CB0, offset: 0x22347, size: 0x8, addend: 0x0, symName: __Z17printStartMessagev, symObjAddr: 0x0, symBinAddr: 0x10000E648, symSize: 0x64 }
  - { offsetInCU: 0x6CCA, offset: 0x22361, size: 0x8, addend: 0x0, symName: __Z21printStartPlayerEntryjRK6Player, symObjAddr: 0x130, symBinAddr: 0x10000E6AC, symSize: 0xA0 }
  - { offsetInCU: 0x6D00, offset: 0x22397, size: 0x8, addend: 0x0, symName: __Z16printTurnDetailsjRK6PlayerRK5Event, symObjAddr: 0x21C, symBinAddr: 0x10000E798, symSize: 0x13C }
  - { offsetInCU: 0x6D44, offset: 0x223DB, size: 0x8, addend: 0x0, symName: __Z16printTurnOutcomeNSt3__112basic_stringIcNS_11char_traitsIcEENS_9allocatorIcEEEE, symObjAddr: 0x358, symBinAddr: 0x10000E8D4, symSize: 0x50 }
  - { offsetInCU: 0x6D6D, offset: 0x22404, size: 0x8, addend: 0x0, symName: __Z15printRoundStartv, symObjAddr: 0x3A8, symBinAddr: 0x10000E924, symSize: 0x4C }
  - { offsetInCU: 0x6D87, offset: 0x2241E, size: 0x8, addend: 0x0, symName: __Z13printRoundEndv, symObjAddr: 0x3F4, symBinAddr: 0x10000E970, symSize: 0x30 }
  - { offsetInCU: 0x6DA1, offset: 0x22438, size: 0x8, addend: 0x0, symName: __Z23printLeaderBoardMessagev, symObjAddr: 0x424, symBinAddr: 0x10000E9A0, symSize: 0x58 }
  - { offsetInCU: 0x6DBB, offset: 0x22452, size: 0x8, addend: 0x0, symName: __Z21printLeaderBoardEntryjRK6Player, symObjAddr: 0x47C, symBinAddr: 0x10000E9F8, symSize: 0x300 }
  - { offsetInCU: 0x6EAE, offset: 0x22545, size: 0x8, addend: 0x0, symName: __Z12printBarrierv, symObjAddr: 0x7D0, symBinAddr: 0x10000ECF8, symSize: 0x58 }
  - { offsetInCU: 0x6EC8, offset: 0x2255F, size: 0x8, addend: 0x0, symName: __Z13printGameOverv, symObjAddr: 0x828, symBinAddr: 0x10000ED50, symSize: 0x30 }
  - { offsetInCU: 0x6EE2, offset: 0x22579, size: 0x8, addend: 0x0, symName: __Z11printWinnerRK6Player, symObjAddr: 0x858, symBinAddr: 0x10000ED80, symSize: 0xC8 }
  - { offsetInCU: 0x6F0A, offset: 0x225A1, size: 0x8, addend: 0x0, symName: __Z14printNoWinnersv, symObjAddr: 0x920, symBinAddr: 0x10000EE48, symSize: 0x58 }
  - { offsetInCU: 0x6F23, offset: 0x225BA, size: 0x8, addend: 0x0, symName: __Z22getEncounterWonMessageRK6Playerj, symObjAddr: 0x978, symBinAddr: 0x10000EEA0, symSize: 0x120 }
  - { offsetInCU: 0x6F5D, offset: 0x225F4, size: 0x8, addend: 0x0, symName: __Z23getEncounterLostMessageRK6Playerj, symObjAddr: 0xB18, symBinAddr: 0x10000F040, symSize: 0x120 }
  - { offsetInCU: 0x6F97, offset: 0x2262E, size: 0x8, addend: 0x0, symName: __Z25getPotionsPurchaseMessageRK6Playerj, symObjAddr: 0xC38, symBinAddr: 0x10000F160, symSize: 0x120 }
  - { offsetInCU: 0x6FD1, offset: 0x22668, size: 0x8, addend: 0x0, symName: __Z22getSolarEclipseMessageRK6Playeri, symObjAddr: 0xD58, symBinAddr: 0x10000F280, symSize: 0x1AC }
  - { offsetInCU: 0x7038, offset: 0x226CF, size: 0x8, addend: 0x0, symName: __ZNKSt3__112basic_stringIcNS_11char_traitsIcEENS_9allocatorIcEEE4dataB8ue170006Ev, symObjAddr: 0x1B44, symBinAddr: 0x10000F548, symSize: 0x28 }
  - { offsetInCU: 0x705E, offset: 0x226F5, size: 0x8, addend: 0x0, symName: __ZNKSt3__112basic_stringIcNS_11char_traitsIcEENS_9allocatorIcEEE13__get_pointerB8ue170006Ev, symObjAddr: 0x1B80, symBinAddr: 0x10000F584, symSize: 0x54 }
  - { offsetInCU: 0x7084, offset: 0x2271B, size: 0x8, addend: 0x0, symName: __ZNKSt3__112basic_stringIcNS_11char_traitsIcEENS_9allocatorIcEEE18__get_long_pointerB8ue170006Ev, symObjAddr: 0x1BD4, symBinAddr: 0x10000F5D8, symSize: 0x28 }
  - { offsetInCU: 0x70AA, offset: 0x22741, size: 0x8, addend: 0x0, symName: __ZNKSt3__112basic_stringIcNS_11char_traitsIcEENS_9allocatorIcEEE19__get_short_pointerB8ue170006Ev, symObjAddr: 0x1BFC, symBinAddr: 0x10000F600, symSize: 0x28 }
  - { offsetInCU: 0x70D0, offset: 0x22767, size: 0x8, addend: 0x0, symName: __ZNSt3__114pointer_traitsIPKcE10pointer_toB8ue170006ERS1_, symObjAddr: 0x1C24, symBinAddr: 0x10000F628, symSize: 0x14 }
  - { offsetInCU: 0x70F3, offset: 0x2278A, size: 0x8, addend: 0x0, symName: __ZNSt3__112basic_stringIcNS_11char_traitsIcEENS_9allocatorIcEEE6appendB8ue170006ERKS5_, symObjAddr: 0x1D58, symBinAddr: 0x10000F63C, symSize: 0x4C }
  - { offsetInCU: 0x7132, offset: 0x227C9, size: 0x8, addend: 0x0, symName: __ZNSt3__116allocator_traitsINS_9allocatorIcEEE37select_on_container_copy_constructionB8ue170006IS2_vvEES2_RKS2_, symObjAddr: 0x1DA4, symBinAddr: 0x10000F688, symSize: 0x10 }
  - { offsetInCU: 0x7161, offset: 0x227F8, size: 0x8, addend: 0x0, symName: __ZNSt3__112basic_stringIcNS_11char_traitsIcEENS_9allocatorIcEEEC1B8ue170006ENS_24__uninitialized_size_tagEmRKS4_, symObjAddr: 0x1DD8, symBinAddr: 0x10000F698, symSize: 0x3C }
  - { offsetInCU: 0x71B5, offset: 0x2284C, size: 0x8, addend: 0x0, symName: __ZNSt3__111char_traitsIcE4copyB8ue170006EPcPKcm, symObjAddr: 0x1E14, symBinAddr: 0x10000F6D4, symSize: 0x40 }
  - { offsetInCU: 0x71F4, offset: 0x2288B, size: 0x8, addend: 0x0, symName: __ZNSt3__111char_traitsIcE6assignB8ue170006EPcmc, symObjAddr: 0x1E54, symBinAddr: 0x10000F714, symSize: 0x44 }
  - { offsetInCU: 0x7233, offset: 0x228CA, size: 0x8, addend: 0x0, symName: __ZNSt3__112basic_stringIcNS_11char_traitsIcEENS_9allocatorIcEEEC2B8ue170006ENS_24__uninitialized_size_tagEmRKS4_, symObjAddr: 0x1EF4, symBinAddr: 0x10000F758, symSize: 0x110 }
  - { offsetInCU: 0x72B3, offset: 0x2294A, size: 0x8, addend: 0x0, symName: __ZNKSt3__112basic_stringIcNS_11char_traitsIcEENS_9allocatorIcEEE20__throw_length_errorB8ue170006Ev, symObjAddr: 0x20EC, symBinAddr: 0x10000F868, symSize: 0x1C }
  - { offsetInCU: 0x72D9, offset: 0x22970, size: 0x8, addend: 0x0, symName: __ZNSt3__112basic_stringIcNS_11char_traitsIcEENS_9allocatorIcEEE13__fits_in_ssoB8ue170006Em, symObjAddr: 0x2108, symBinAddr: 0x10000F884, symSize: 0x20 }
  - { offsetInCU: 0x72FD, offset: 0x22994, size: 0x8, addend: 0x0, symName: __ZNSt3__112basic_stringIcNS_11char_traitsIcEENS_9allocatorIcEEE11__recommendB8ue170006Em, symObjAddr: 0x21A0, symBinAddr: 0x10000F8A4, symSize: 0x84 }
  - { offsetInCU: 0x7330, offset: 0x229C7, size: 0x8, addend: 0x0, symName: __ZNSt3__116allocator_traitsINS_9allocatorIcEEE8allocateB8ue170006ERS2_m, symObjAddr: 0x2224, symBinAddr: 0x10000F928, symSize: 0x2C }
  - { offsetInCU: 0x7363, offset: 0x229FA, size: 0x8, addend: 0x0, symName: __ZNSt3__112basic_stringIcNS_11char_traitsIcEENS_9allocatorIcEEE16__begin_lifetimeB8ue170006EPcm, symObjAddr: 0x2274, symBinAddr: 0x10000F954, symSize: 0x14 }
  - { offsetInCU: 0x7396, offset: 0x22A2D, size: 0x8, addend: 0x0, symName: __ZNSt3__112basic_stringIcNS_11char_traitsIcEENS_9allocatorIcEEE14__set_long_capB8ue170006Em, symObjAddr: 0x2288, symBinAddr: 0x10000F968, symSize: 0x70 }
  - { offsetInCU: 0x73CB, offset: 0x22A62, size: 0x8, addend: 0x0, symName: __ZNSt3__112basic_stringIcNS_11char_traitsIcEENS_9allocatorIcEEE18__set_long_pointerB8ue170006EPc, symObjAddr: 0x22F8, symBinAddr: 0x10000F9D8, symSize: 0x38 }
  - { offsetInCU: 0x7400, offset: 0x22A97, size: 0x8, addend: 0x0, symName: __ZNSt3__112basic_stringIcNS_11char_traitsIcEENS_9allocatorIcEEE10__align_itB8ue170006ILm16EEEmm, symObjAddr: 0x24F8, symBinAddr: 0x10000FA10, symSize: 0x1C }
  - { offsetInCU: 0x742E, offset: 0x22AC5, size: 0x8, addend: 0x0, symName: __ZNSt3__19allocatorIcE8allocateB8ue170006Em, symObjAddr: 0x2514, symBinAddr: 0x10000FA2C, symSize: 0x58 }
  - { offsetInCU: 0x7485, offset: 0x22B1C, size: 0x8, addend: 0x0, symName: __ZNKSt3__114__copy_trivialclB8ue170006IKccLi0EEENS_4pairIPT_PT0_EES5_S5_S7_, symObjAddr: 0x28C8, symBinAddr: 0x10000FCA4, symSize: 0x48 }
  - { offsetInCU: 0x750B, offset: 0x22BA2, size: 0x8, addend: 0x0, symName: __ZNSt3__14pairIPKcS2_EC1B8ue170006IS2_S2_LPv0EEEOT_OT0_, symObjAddr: 0x2A30, symBinAddr: 0x10000FE0C, symSize: 0x3C }
  - { offsetInCU: 0x7569, offset: 0x22C00, size: 0x8, addend: 0x0, symName: __ZNSt3__14pairIPKcS2_EC2B8ue170006IS2_S2_LPv0EEEOT_OT0_, symObjAddr: 0x2A6C, symBinAddr: 0x10000FE48, symSize: 0x34 }
  - { offsetInCU: 0x75C7, offset: 0x22C5E, size: 0x8, addend: 0x0, symName: __ZNSt3__118__unwrap_iter_implIPKcLb1EE8__unwrapB8ue170006ES2_, symObjAddr: 0x2AA0, symBinAddr: 0x10000FE7C, symSize: 0x24 }
  - { offsetInCU: 0x75F4, offset: 0x22C8B, size: 0x8, addend: 0x0, symName: __ZNSt3__14pairIPKcPcEC1B8ue170006IRS2_S3_LPv0EEEOT_OT0_, symObjAddr: 0x2BD8, symBinAddr: 0x10000FFB4, symSize: 0x3C }
  - { offsetInCU: 0x7652, offset: 0x22CE9, size: 0x8, addend: 0x0, symName: __ZNSt3__14pairIPKcPcEC2B8ue170006IRS2_S3_LPv0EEEOT_OT0_, symObjAddr: 0x2C14, symBinAddr: 0x10000FFF0, symSize: 0x34 }
  - { offsetInCU: 0x76B0, offset: 0x22D47, size: 0x8, addend: 0x0, symName: __ZNSt3__118__unwrap_iter_implIPcLb1EE8__unwrapB8ue170006ES1_, symObjAddr: 0x2C48, symBinAddr: 0x100010024, symSize: 0x24 }
  - { offsetInCU: 0x76D3, offset: 0x22D6A, size: 0x8, addend: 0x0, symName: __ZNSt3__14pairIPKcPcEC1B8ue170006IS2_S3_LPv0EEEOT_OT0_, symObjAddr: 0x2C6C, symBinAddr: 0x100010048, symSize: 0x3C }
  - { offsetInCU: 0x7731, offset: 0x22DC8, size: 0x8, addend: 0x0, symName: __ZNSt3__14pairIPKcPcEC2B8ue170006IS2_S3_LPv0EEEOT_OT0_, symObjAddr: 0x2CA8, symBinAddr: 0x100010084, symSize: 0x34 }
  - { offsetInCU: 0x778F, offset: 0x22E26, size: 0x8, addend: 0x0, symName: __ZNSt3__118__unwrap_iter_implIPKcLb1EE8__rewrapB8ue170006ES2_S2_, symObjAddr: 0x2D18, symBinAddr: 0x1000100F4, symSize: 0x48 }
  - { offsetInCU: 0x77C0, offset: 0x22E57, size: 0x8, addend: 0x0, symName: __ZNSt3__118__unwrap_iter_implIPcLb1EE8__rewrapB8ue170006ES1_S1_, symObjAddr: 0x2D60, symBinAddr: 0x10001013C, symSize: 0x48 }
  - { offsetInCU: 0x10DF4, offset: 0x33F69, size: 0x8, addend: 0x0, symName: _main, symObjAddr: 0x0, symBinAddr: 0x100010240, symSize: 0x2E4 }
  - { offsetInCU: 0x10E6F, offset: 0x33FE4, size: 0x8, addend: 0x0, symName: __ZNSt3__114basic_ifstreamIcNS_11char_traitsIcEEEC1EPKcj, symObjAddr: 0x3B0, symBinAddr: 0x100010524, symSize: 0x16C }
  - { offsetInCU: 0x10EB9, offset: 0x3402E, size: 0x8, addend: 0x0, symName: __ZNKSt3__114basic_ifstreamIcNS_11char_traitsIcEEE7is_openEv, symObjAddr: 0x51C, symBinAddr: 0x100010690, symSize: 0x2C }
  - { offsetInCU: 0x10FE4, offset: 0x34159, size: 0x8, addend: 0x0, symName: __ZN10MatamStoryD1Ev, symObjAddr: 0x548, symBinAddr: 0x1000106BC, symSize: 0x2C }
  - { offsetInCU: 0x11015, offset: 0x3418A, size: 0x8, addend: 0x0, symName: __ZNSt3__114basic_ifstreamIcNS_11char_traitsIcEEED1Ev, symObjAddr: 0x580, symBinAddr: 0x1000106E8, symSize: 0x40 }
  - { offsetInCU: 0x11042, offset: 0x341B7, size: 0x8, addend: 0x0, symName: __ZN10MatamStoryD2Ev, symObjAddr: 0x5C0, symBinAddr: 0x100010728, symSize: 0x38 }
  - { offsetInCU: 0x1106E, offset: 0x341E3, size: 0x8, addend: 0x0, symName: __ZNSt3__114basic_ifstreamIcNS_11char_traitsIcEEED2Ev, symObjAddr: 0x1540, symBinAddr: 0x100010760, symSize: 0x64 }
  - { offsetInCU: 0x110A8, offset: 0x3421D, size: 0x8, addend: 0x0, symName: __ZTv0_n24_NSt3__114basic_ifstreamIcNS_11char_traitsIcEEED1Ev, symObjAddr: 0x15A4, symBinAddr: 0x1000107C4, symSize: 0x28 }
  - { offsetInCU: 0x110DD, offset: 0x34252, size: 0x8, addend: 0x0, symName: __ZNKSt3__113basic_filebufIcNS_11char_traitsIcEEE7is_openEv, symObjAddr: 0x21F4, symBinAddr: 0x1000107EC, symSize: 0x24 }
  - { offsetInCU: 0x26, offset: 0x342B3, size: 0x8, addend: 0x0, symName: __ZN6BalrogC2Ev, symObjAddr: 0x0, symBinAddr: 0x100010810, symSize: 0x9C }
  - { offsetInCU: 0x4C31, offset: 0x38EBE, size: 0x8, addend: 0x0, symName: __ZN6BalrogC2Ev, symObjAddr: 0x0, symBinAddr: 0x100010810, symSize: 0x9C }
  - { offsetInCU: 0x4C62, offset: 0x38EEF, size: 0x8, addend: 0x0, symName: __ZNSt3__112basic_stringIcNS_11char_traitsIcEENS_9allocatorIcEEEC1B8ue170006ILi0EEEPKc, symObjAddr: 0x9C, symBinAddr: 0x1000108AC, symSize: 0x34 }
  - { offsetInCU: 0x4CA1, offset: 0x38F2E, size: 0x8, addend: 0x0, symName: __ZN6BalrogC1Ev, symObjAddr: 0xD0, symBinAddr: 0x1000108E0, symSize: 0x2C }
  - { offsetInCU: 0x4CCD, offset: 0x38F5A, size: 0x8, addend: 0x0, symName: __ZN6Balrog9winBattleEv, symObjAddr: 0xFC, symBinAddr: 0x10001090C, symSize: 0x20 }
  - { offsetInCU: 0x4CF5, offset: 0x38F82, size: 0x8, addend: 0x0, symName: __ZN6Balrog10loseBattleEv, symObjAddr: 0x11C, symBinAddr: 0x10001092C, symSize: 0x20 }
  - { offsetInCU: 0x4D1D, offset: 0x38FAA, size: 0x8, addend: 0x0, symName: __ZN6BalrogD1Ev, symObjAddr: 0x13C, symBinAddr: 0x10001094C, symSize: 0x2C }
  - { offsetInCU: 0x4D47, offset: 0x38FD4, size: 0x8, addend: 0x0, symName: __ZN6BalrogD0Ev, symObjAddr: 0x168, symBinAddr: 0x100010978, symSize: 0x30 }
  - { offsetInCU: 0x4D71, offset: 0x38FFE, size: 0x8, addend: 0x0, symName: __ZN6BalrogD2Ev, symObjAddr: 0x198, symBinAddr: 0x1000109A8, symSize: 0x2C }
  - { offsetInCU: 0x4D9B, offset: 0x39028, size: 0x8, addend: 0x0, symName: __ZNSt3__112basic_stringIcNS_11char_traitsIcEENS_9allocatorIcEEEC2B8ue170006ILi0EEEPKc, symObjAddr: 0x1C4, symBinAddr: 0x1000109D4, symSize: 0x58 }
  - { offsetInCU: 0x339F, offset: 0x3C410, size: 0x8, addend: 0x0, symName: __ZNSt3__1neB8ue170006IcNS_11char_traitsIcEENS_9allocatorIcEEEEbRKNS_12basic_stringIT_T0_T1_EEPKS6_, symObjAddr: 0x850, symBinAddr: 0x100011248, symSize: 0x34 }
  - { offsetInCU: 0x33F7, offset: 0x3C468, size: 0x8, addend: 0x0, symName: __ZNSt3__1plB8ue170006IcNS_11char_traitsIcEENS_9allocatorIcEEEENS_12basic_stringIT_T0_T1_EEPKS6_OS9_, symObjAddr: 0x904, symBinAddr: 0x10001127C, symSize: 0x44 }
  - { offsetInCU: 0x5B32, offset: 0x3EBA3, size: 0x8, addend: 0x0, symName: __ZN9EncounterclER6Player, symObjAddr: 0x0, symBinAddr: 0x100010A2C, symSize: 0x1B0 }
  - { offsetInCU: 0x5B68, offset: 0x3EBD9, size: 0x8, addend: 0x0, symName: __ZNKSt3__110unique_ptrI7MonsterNS_14default_deleteIS1_EEEptB8ue170006Ev, symObjAddr: 0x1B0, symBinAddr: 0x100010BDC, symSize: 0x28 }
  - { offsetInCU: 0x5B8E, offset: 0x3EBFF, size: 0x8, addend: 0x0, symName: __ZNKSt3__110unique_ptrI7MonsterNS_14default_deleteIS1_EEEdeB8ue170006Ev, symObjAddr: 0x1D8, symBinAddr: 0x100010C04, symSize: 0x28 }
  - { offsetInCU: 0x5BB4, offset: 0x3EC25, size: 0x8, addend: 0x0, symName: __ZNK9Encounter14getDescriptionEv, symObjAddr: 0x234, symBinAddr: 0x100010C2C, symSize: 0x61C }
  - { offsetInCU: 0x5BDB, offset: 0x3EC4C, size: 0x8, addend: 0x0, symName: __ZN9EncounterC2ENSt3__110unique_ptrI7MonsterNS0_14default_deleteIS2_EEEE, symObjAddr: 0x948, symBinAddr: 0x1000112C0, symSize: 0xA4 }
  - { offsetInCU: 0x5C1B, offset: 0x3EC8C, size: 0x8, addend: 0x0, symName: __ZN9EncounterC1ENSt3__110unique_ptrI7MonsterNS0_14default_deleteIS2_EEEE, symObjAddr: 0xA80, symBinAddr: 0x100011364, symSize: 0x34 }
  - { offsetInCU: 0x5C56, offset: 0x3ECC7, size: 0x8, addend: 0x0, symName: __ZN9EncounterD1Ev, symObjAddr: 0xAB4, symBinAddr: 0x100011398, symSize: 0x2C }
  - { offsetInCU: 0x5C80, offset: 0x3ECF1, size: 0x8, addend: 0x0, symName: __ZN9EncounterD0Ev, symObjAddr: 0xAE0, symBinAddr: 0x1000113C4, symSize: 0x30 }
  - { offsetInCU: 0x5CAA, offset: 0x3ED1B, size: 0x8, addend: 0x0, symName: __ZNK9Encounter10getOutcomeEv, symObjAddr: 0xB10, symBinAddr: 0x1000113F4, symSize: 0x3C }
  - { offsetInCU: 0x5CD0, offset: 0x3ED41, size: 0x8, addend: 0x0, symName: __ZN9EncounterD2Ev, symObjAddr: 0xB4C, symBinAddr: 0x100011430, symSize: 0x54 }
  - { offsetInCU: 0x5CFA, offset: 0x3ED6B, size: 0x8, addend: 0x0, symName: __ZNKSt3__117__compressed_pairIP7MonsterNS_14default_deleteIS1_EEE5firstB8ue170006Ev, symObjAddr: 0xBA0, symBinAddr: 0x100011484, symSize: 0x24 }
  - { offsetInCU: 0x5D20, offset: 0x3ED91, size: 0x8, addend: 0x0, symName: __ZNKSt3__122__compressed_pair_elemIP7MonsterLi0ELb0EE5__getB8ue170006Ev, symObjAddr: 0xBC4, symBinAddr: 0x1000114A8, symSize: 0x14 }
  - { offsetInCU: 0x4B3B, offset: 0x43910, size: 0x8, addend: 0x0, symName: __ZN5EventC2Ev, symObjAddr: 0x0, symBinAddr: 0x1000114BC, symSize: 0x40 }
  - { offsetInCU: 0x4B67, offset: 0x4393C, size: 0x8, addend: 0x0, symName: __ZN5EventD2Ev, symObjAddr: 0x6C, symBinAddr: 0x1000114FC, symSize: 0x40 }
  - { offsetInCU: 0x4B93, offset: 0x43968, size: 0x8, addend: 0x0, symName: __ZN5EventD1Ev, symObjAddr: 0xAC, symBinAddr: 0x10001153C, symSize: 0x14 }
  - { offsetInCU: 0x4BBF, offset: 0x43994, size: 0x8, addend: 0x0, symName: __ZN5EventD0Ev, symObjAddr: 0xC0, symBinAddr: 0x100011550, symSize: 0xC }
  - { offsetInCU: 0x4BEB, offset: 0x439C0, size: 0x8, addend: 0x0, symName: __ZNK5Event10getOutcomeEv, symObjAddr: 0xCC, symBinAddr: 0x10001155C, symSize: 0x3C }
  - { offsetInCU: 0x55CE, offset: 0x48FBE, size: 0x8, addend: 0x0, symName: __ZN7Monster13createMonsterERKNSt3__112basic_stringIcNS0_11char_traitsIcEENS0_9allocatorIcEEEE, symObjAddr: 0x0, symBinAddr: 0x100011598, symSize: 0x244 }
  - { offsetInCU: 0x55F3, offset: 0x48FE3, size: 0x8, addend: 0x0, symName: __ZNSt16invalid_argumentC1B8ue170006ERKNSt3__112basic_stringIcNS0_11char_traitsIcEENS0_9allocatorIcEEEE, symObjAddr: 0x324, symBinAddr: 0x1000117DC, symSize: 0x34 }
  - { offsetInCU: 0x562B, offset: 0x4901B, size: 0x8, addend: 0x0, symName: __ZN7Monster17createPackMonsterEP4Pack, symObjAddr: 0x358, symBinAddr: 0x100011810, symSize: 0x68 }
  - { offsetInCU: 0x5650, offset: 0x49040, size: 0x8, addend: 0x0, symName: __ZNK7Monster14getCombatPowerEv, symObjAddr: 0x3C0, symBinAddr: 0x100011878, symSize: 0x20 }
  - { offsetInCU: 0x5678, offset: 0x49068, size: 0x8, addend: 0x0, symName: __ZN7Monster9winBattleEv, symObjAddr: 0x3E0, symBinAddr: 0x100011898, symSize: 0x10 }
  - { offsetInCU: 0x56A0, offset: 0x49090, size: 0x8, addend: 0x0, symName: __ZN7Monster10loseBattleEv, symObjAddr: 0x3F0, symBinAddr: 0x1000118A8, symSize: 0x10 }
  - { offsetInCU: 0x56C8, offset: 0x490B8, size: 0x8, addend: 0x0, symName: __ZNK7Monster7getLootEv, symObjAddr: 0x400, symBinAddr: 0x1000118B8, symSize: 0x18 }
  - { offsetInCU: 0x56F0, offset: 0x490E0, size: 0x8, addend: 0x0, symName: __ZNK7Monster9getDamageEv, symObjAddr: 0x418, symBinAddr: 0x1000118D0, symSize: 0x18 }
  - { offsetInCU: 0x5718, offset: 0x49108, size: 0x8, addend: 0x0, symName: __ZNK7Monster8getLevelEv, symObjAddr: 0x430, symBinAddr: 0x1000118E8, symSize: 0x18 }
  - { offsetInCU: 0x5740, offset: 0x49130, size: 0x8, addend: 0x0, symName: __ZNK7Monster7getNameEv, symObjAddr: 0x448, symBinAddr: 0x100011900, symSize: 0x3C }
  - { offsetInCU: 0x5768, offset: 0x49158, size: 0x8, addend: 0x0, symName: __ZN7MonsterC2ERKNSt3__112basic_stringIcNS0_11char_traitsIcEENS0_9allocatorIcEEEEiiii, symObjAddr: 0x484, symBinAddr: 0x10001193C, symSize: 0x78 }
  - { offsetInCU: 0x57DA, offset: 0x491CA, size: 0x8, addend: 0x0, symName: __ZN7MonsterC1ERKNSt3__112basic_stringIcNS0_11char_traitsIcEENS0_9allocatorIcEEEEiiii, symObjAddr: 0x4FC, symBinAddr: 0x1000119B4, symSize: 0x54 }
  - { offsetInCU: 0x584C, offset: 0x4923C, size: 0x8, addend: 0x0, symName: __ZN7MonsterD2Ev, symObjAddr: 0x550, symBinAddr: 0x100011A08, symSize: 0x40 }
  - { offsetInCU: 0x5878, offset: 0x49268, size: 0x8, addend: 0x0, symName: __ZN7MonsterD1Ev, symObjAddr: 0x590, symBinAddr: 0x100011A48, symSize: 0x2C }
  - { offsetInCU: 0x58A4, offset: 0x49294, size: 0x8, addend: 0x0, symName: __ZN7MonsterD0Ev, symObjAddr: 0x5BC, symBinAddr: 0x100011A74, symSize: 0x30 }
  - { offsetInCU: 0x58D0, offset: 0x492C0, size: 0x8, addend: 0x0, symName: __ZNK7Monster14getMemberCountEv, symObjAddr: 0x5EC, symBinAddr: 0x100011AA4, symSize: 0x14 }
  - { offsetInCU: 0x58F8, offset: 0x492E8, size: 0x8, addend: 0x0, symName: __ZNSt16invalid_argumentC2B8ue170006ERKNSt3__112basic_stringIcNS0_11char_traitsIcEENS0_9allocatorIcEEEE, symObjAddr: 0x600, symBinAddr: 0x100011AB8, symSize: 0x4C }
  - { offsetInCU: 0x46CE, offset: 0x4D9F8, size: 0x8, addend: 0x0, symName: __ZNSt3__1neB8ue170006IPKNS_10unique_ptrI7MonsterNS_14default_deleteIS2_EEEEPS5_EEbRKNS_11__wrap_iterIT_EERKNS9_IT0_EE, symObjAddr: 0x30C, symBinAddr: 0x100011DDC, symSize: 0x34 }
  - { offsetInCU: 0x471A, offset: 0x4DA44, size: 0x8, addend: 0x0, symName: __ZNSt3__1neB8ue170006IPKNS_10unique_ptrI7MonsterNS_14default_deleteIS2_EEEEEEbRKNS_11__wrap_iterIT_EESC_, symObjAddr: 0x54C, symBinAddr: 0x100011FF4, symSize: 0x34 }
  - { offsetInCU: 0x475D, offset: 0x4DA87, size: 0x8, addend: 0x0, symName: __ZNSt3__1eqB8ue170006IPKNS_10unique_ptrI7MonsterNS_14default_deleteIS2_EEEEPS5_EEbRKNS_11__wrap_iterIT_EERKNS9_IT0_EE, symObjAddr: 0x8C4, symBinAddr: 0x10001236C, symSize: 0x48 }
  - { offsetInCU: 0x47A9, offset: 0x4DAD3, size: 0x8, addend: 0x0, symName: __ZNSt3__1eqB8ue170006IPKNS_10unique_ptrI7MonsterNS_14default_deleteIS2_EEEEEEbRKNS_11__wrap_iterIT_EESC_, symObjAddr: 0x924, symBinAddr: 0x1000123CC, symSize: 0x48 }
  - { offsetInCU: 0x47EC, offset: 0x4DB16, size: 0x8, addend: 0x0, symName: __ZNSt3__112__to_addressB8ue170006INS_10unique_ptrI7MonsterNS_14default_deleteIS2_EEEEEEPT_S7_, symObjAddr: 0xD48, symBinAddr: 0x1000127E4, symSize: 0x14 }
  - { offsetInCU: 0x4821, offset: 0x4DB4B, size: 0x8, addend: 0x0, symName: __ZNSt3__119__allocate_at_leastB8ue170006INS_9allocatorINS_10unique_ptrI7MonsterNS_14default_deleteIS3_EEEEEEEENS_19__allocation_resultINS_16allocator_traitsIT_E7pointerEEERSA_m, symObjAddr: 0x1F90, symBinAddr: 0x1000131E0, symSize: 0x40 }
  - { offsetInCU: 0x4864, offset: 0x4DB8E, size: 0x8, addend: 0x0, symName: __ZNSt3__142__uninitialized_allocator_move_if_noexceptB8ue170006INS_9allocatorINS_10unique_ptrI7MonsterNS_14default_deleteIS3_EEEEEENS_16reverse_iteratorIPS6_EESA_SA_EET2_RT_T0_T1_SB_, symObjAddr: 0x2228, symBinAddr: 0x100013394, symSize: 0x12C }
  - { offsetInCU: 0x4904, offset: 0x4DC2E, size: 0x8, addend: 0x0, symName: __ZNSt3__14swapB8ue170006IPNS_10unique_ptrI7MonsterNS_14default_deleteIS2_EEEEEENS_9enable_ifIXaasr21is_move_constructibleIT_EE5valuesr18is_move_assignableIS8_EE5valueEvE4typeERS8_SB_, symObjAddr: 0x23A0, symBinAddr: 0x10001350C, symSize: 0x3C }
  - { offsetInCU: 0x4955, offset: 0x4DC7F, size: 0x8, addend: 0x0, symName: __ZNSt3__122__make_exception_guardB8ue170006INS_29_AllocatorDestroyRangeReverseINS_9allocatorINS_10unique_ptrI7MonsterNS_14default_deleteIS4_EEEEEENS_16reverse_iteratorIPS7_EEEEEENS_28__exception_guard_exceptionsIT_EESE_, symObjAddr: 0x2488, symBinAddr: 0x1000135F4, symSize: 0x4C }
  - { offsetInCU: 0x498B, offset: 0x4DCB5, size: 0x8, addend: 0x0, symName: __ZNSt3__1neB8ue170006IPNS_10unique_ptrI7MonsterNS_14default_deleteIS2_EEEES6_EEbRKNS_16reverse_iteratorIT_EERKNS7_IT0_EE, symObjAddr: 0x2518, symBinAddr: 0x100013684, symSize: 0x48 }
  - { offsetInCU: 0x49D7, offset: 0x4DD01, size: 0x8, addend: 0x0, symName: __ZNSt3__112__to_addressB8ue170006INS_16reverse_iteratorIPNS_10unique_ptrI7MonsterNS_14default_deleteIS3_EEEEEEvEEu7__decayIDTclsr19__to_address_helperIT_EE6__callclsr3stdE7declvalIRKS9_EEEEESB_, symObjAddr: 0x2560, symBinAddr: 0x1000136CC, symSize: 0x24 }
  - { offsetInCU: 0x4A36, offset: 0x4DD60, size: 0x8, addend: 0x0, symName: __ZNSt3__119__allocator_destroyB8ue170006INS_9allocatorINS_10unique_ptrI7MonsterNS_14default_deleteIS3_EEEEEENS_16reverse_iteratorINS8_IPS6_EEEESB_EEvRT_T0_T1_, symObjAddr: 0x2810, symBinAddr: 0x10001397C, symSize: 0x70 }
  - { offsetInCU: 0x4A9B, offset: 0x4DDC5, size: 0x8, addend: 0x0, symName: __ZNSt3__1neB8ue170006INS_16reverse_iteratorIPNS_10unique_ptrI7MonsterNS_14default_deleteIS3_EEEEEES8_EEbRKNS1_IT_EERKNS1_IT0_EE, symObjAddr: 0x28BC, symBinAddr: 0x100013A28, symSize: 0x60 }
  - { offsetInCU: 0x4AE7, offset: 0x4DE11, size: 0x8, addend: 0x0, symName: __ZNSt3__112__to_addressB8ue170006INS_16reverse_iteratorINS1_IPNS_10unique_ptrI7MonsterNS_14default_deleteIS3_EEEEEEEEvEEu7__decayIDTclsr19__to_address_helperIT_EE6__callclsr3stdE7declvalIRKSA_EEEEESC_, symObjAddr: 0x291C, symBinAddr: 0x100013A88, symSize: 0x24 }
  - { offsetInCU: 0x50F8, offset: 0x4E422, size: 0x8, addend: 0x0, symName: __ZNSt3__16vectorINS_10unique_ptrI7MonsterNS_14default_deleteIS2_EEEENS_9allocatorIS5_EEE26__swap_out_circular_bufferERNS_14__split_bufferIS5_RS7_EE, symObjAddr: 0x19FC, symBinAddr: 0x100012E80, symSize: 0x110 }
  - { offsetInCU: 0x704D, offset: 0x50377, size: 0x8, addend: 0x0, symName: __ZN4PackC2Ev, symObjAddr: 0x0, symBinAddr: 0x100011B04, symSize: 0xA8 }
  - { offsetInCU: 0x707E, offset: 0x503A8, size: 0x8, addend: 0x0, symName: __ZNSt3__16vectorINS_10unique_ptrI7MonsterNS_14default_deleteIS2_EEEENS_9allocatorIS5_EEEC1B8ue170006Ev, symObjAddr: 0xDC, symBinAddr: 0x100011BAC, symSize: 0x2C }
  - { offsetInCU: 0x70A8, offset: 0x503D2, size: 0x8, addend: 0x0, symName: __ZN4PackC1Ev, symObjAddr: 0x108, symBinAddr: 0x100011BD8, symSize: 0x2C }
  - { offsetInCU: 0x70D4, offset: 0x503FE, size: 0x8, addend: 0x0, symName: __ZN4Pack10addMonsterENSt3__110unique_ptrI7MonsterNS0_14default_deleteIS2_EEEE, symObjAddr: 0x134, symBinAddr: 0x100011C04, symSize: 0x30 }
  - { offsetInCU: 0x710B, offset: 0x50435, size: 0x8, addend: 0x0, symName: __ZNSt3__16vectorINS_10unique_ptrI7MonsterNS_14default_deleteIS2_EEEENS_9allocatorIS5_EEE9push_backB8ue170006EOS5_, symObjAddr: 0x164, symBinAddr: 0x100011C34, symSize: 0x6C }
  - { offsetInCU: 0x7142, offset: 0x5046C, size: 0x8, addend: 0x0, symName: __ZN4Pack9winBattleEv, symObjAddr: 0x1D0, symBinAddr: 0x100011CA0, symSize: 0xA4 }
  - { offsetInCU: 0x7178, offset: 0x504A2, size: 0x8, addend: 0x0, symName: __ZNSt3__111__wrap_iterIPKNS_10unique_ptrI7MonsterNS_14default_deleteIS2_EEEEEC1B8ue170006Ev, symObjAddr: 0x274, symBinAddr: 0x100011D44, symSize: 0x2C }
  - { offsetInCU: 0x71A2, offset: 0x504CC, size: 0x8, addend: 0x0, symName: __ZNSt3__16vectorINS_10unique_ptrI7MonsterNS_14default_deleteIS2_EEEENS_9allocatorIS5_EEE5beginB8ue170006Ev, symObjAddr: 0x2A0, symBinAddr: 0x100011D70, symSize: 0x30 }
  - { offsetInCU: 0x71D4, offset: 0x504FE, size: 0x8, addend: 0x0, symName: __ZNSt3__111__wrap_iterIPKNS_10unique_ptrI7MonsterNS_14default_deleteIS2_EEEEEC1B8ue170006IPS5_EERKNS0_IT_EEPNS_9enable_ifIXsr14is_convertibleISB_S7_EE5valueEvE4typeE, symObjAddr: 0x2D0, symBinAddr: 0x100011DA0, symSize: 0x3C }
  - { offsetInCU: 0x7220, offset: 0x5054A, size: 0x8, addend: 0x0, symName: __ZNSt3__16vectorINS_10unique_ptrI7MonsterNS_14default_deleteIS2_EEEENS_9allocatorIS5_EEE3endB8ue170006Ev, symObjAddr: 0x340, symBinAddr: 0x100011E10, symSize: 0x30 }
  - { offsetInCU: 0x7248, offset: 0x50572, size: 0x8, addend: 0x0, symName: __ZNKSt3__111__wrap_iterIPKNS_10unique_ptrI7MonsterNS_14default_deleteIS2_EEEEEdeB8ue170006Ev, symObjAddr: 0x370, symBinAddr: 0x100011E40, symSize: 0x18 }
  - { offsetInCU: 0x726E, offset: 0x50598, size: 0x8, addend: 0x0, symName: __ZNSt3__111__wrap_iterIPKNS_10unique_ptrI7MonsterNS_14default_deleteIS2_EEEEEppB8ue170006Ev, symObjAddr: 0x3B0, symBinAddr: 0x100011E58, symSize: 0x20 }
  - { offsetInCU: 0x7294, offset: 0x505BE, size: 0x8, addend: 0x0, symName: __ZN4Pack10loseBattleEv, symObjAddr: 0x3D0, symBinAddr: 0x100011E78, symSize: 0xA4 }
  - { offsetInCU: 0x72CA, offset: 0x505F4, size: 0x8, addend: 0x0, symName: __ZNK4Pack14getCombatPowerEv, symObjAddr: 0x474, symBinAddr: 0x100011F1C, symSize: 0xA8 }
  - { offsetInCU: 0x730E, offset: 0x50638, size: 0x8, addend: 0x0, symName: __ZNKSt3__16vectorINS_10unique_ptrI7MonsterNS_14default_deleteIS2_EEEENS_9allocatorIS5_EEE5beginB8ue170006Ev, symObjAddr: 0x51C, symBinAddr: 0x100011FC4, symSize: 0x30 }
  - { offsetInCU: 0x7336, offset: 0x50660, size: 0x8, addend: 0x0, symName: __ZNKSt3__16vectorINS_10unique_ptrI7MonsterNS_14default_deleteIS2_EEEENS_9allocatorIS5_EEE3endB8ue170006Ev, symObjAddr: 0x580, symBinAddr: 0x100012028, symSize: 0x30 }
  - { offsetInCU: 0x735E, offset: 0x50688, size: 0x8, addend: 0x0, symName: __ZNK4Pack7getLootEv, symObjAddr: 0x5B0, symBinAddr: 0x100012058, symSize: 0xA8 }
  - { offsetInCU: 0x73A2, offset: 0x506CC, size: 0x8, addend: 0x0, symName: __ZNK4Pack9getDamageEv, symObjAddr: 0x658, symBinAddr: 0x100012100, symSize: 0xA8 }
  - { offsetInCU: 0x73E6, offset: 0x50710, size: 0x8, addend: 0x0, symName: __ZNK4Pack8getLevelEv, symObjAddr: 0x700, symBinAddr: 0x1000121A8, symSize: 0xA8 }
  - { offsetInCU: 0x742A, offset: 0x50754, size: 0x8, addend: 0x0, symName: __ZNK4Pack14getMemberCountEv, symObjAddr: 0x7A8, symBinAddr: 0x100012250, symSize: 0x28 }
  - { offsetInCU: 0x7452, offset: 0x5077C, size: 0x8, addend: 0x0, symName: __ZNKSt3__16vectorINS_10unique_ptrI7MonsterNS_14default_deleteIS2_EEEENS_9allocatorIS5_EEE4sizeB8ue170006Ev, symObjAddr: 0x7D0, symBinAddr: 0x100012278, symSize: 0x28 }
  - { offsetInCU: 0x7478, offset: 0x507A2, size: 0x8, addend: 0x0, symName: __ZN4PackD1Ev, symObjAddr: 0x7F8, symBinAddr: 0x1000122A0, symSize: 0x2C }
  - { offsetInCU: 0x74A2, offset: 0x507CC, size: 0x8, addend: 0x0, symName: __ZN4PackD0Ev, symObjAddr: 0x824, symBinAddr: 0x1000122CC, symSize: 0x30 }
  - { offsetInCU: 0x74CD, offset: 0x507F7, size: 0x8, addend: 0x0, symName: __ZNSt3__111__wrap_iterIPKNS_10unique_ptrI7MonsterNS_14default_deleteIS2_EEEEEC2B8ue170006Ev, symObjAddr: 0x854, symBinAddr: 0x1000122FC, symSize: 0x18 }
  - { offsetInCU: 0x74F6, offset: 0x50820, size: 0x8, addend: 0x0, symName: __ZNSt3__111__wrap_iterIPKNS_10unique_ptrI7MonsterNS_14default_deleteIS2_EEEEEC2B8ue170006IPS5_EERKNS0_IT_EEPNS_9enable_ifIXsr14is_convertibleISB_S7_EE5valueEvE4typeE, symObjAddr: 0x86C, symBinAddr: 0x100012314, symSize: 0x40 }
  - { offsetInCU: 0x7542, offset: 0x5086C, size: 0x8, addend: 0x0, symName: __ZNKSt3__111__wrap_iterIPNS_10unique_ptrI7MonsterNS_14default_deleteIS2_EEEEE4baseB8ue170006Ev, symObjAddr: 0x8AC, symBinAddr: 0x100012354, symSize: 0x18 }
  - { offsetInCU: 0x7568, offset: 0x50892, size: 0x8, addend: 0x0, symName: __ZNKSt3__111__wrap_iterIPKNS_10unique_ptrI7MonsterNS_14default_deleteIS2_EEEEE4baseB8ue170006Ev, symObjAddr: 0x90C, symBinAddr: 0x1000123B4, symSize: 0x18 }
  - { offsetInCU: 0x758E, offset: 0x508B8, size: 0x8, addend: 0x0, symName: __ZN4PackD2Ev, symObjAddr: 0x96C, symBinAddr: 0x100012414, symSize: 0x48 }
  - { offsetInCU: 0x75B8, offset: 0x508E2, size: 0x8, addend: 0x0, symName: __ZNSt3__16vectorINS_10unique_ptrI7MonsterNS_14default_deleteIS2_EEEENS_9allocatorIS5_EEED1B8ue170006Ev, symObjAddr: 0x9B4, symBinAddr: 0x10001245C, symSize: 0x2C }
  - { offsetInCU: 0x75E2, offset: 0x5090C, size: 0x8, addend: 0x0, symName: __ZNSt3__16vectorINS_10unique_ptrI7MonsterNS_14default_deleteIS2_EEEENS_9allocatorIS5_EEED2B8ue170006Ev, symObjAddr: 0x9E0, symBinAddr: 0x100012488, symSize: 0x44 }
  - { offsetInCU: 0x760C, offset: 0x50936, size: 0x8, addend: 0x0, symName: __ZNSt3__16vectorINS_10unique_ptrI7MonsterNS_14default_deleteIS2_EEEENS_9allocatorIS5_EEE16__destroy_vectorC1B8ue170006ERS8_, symObjAddr: 0xA24, symBinAddr: 0x1000124CC, symSize: 0x34 }
  - { offsetInCU: 0x7646, offset: 0x50970, size: 0x8, addend: 0x0, symName: __ZNSt3__16vectorINS_10unique_ptrI7MonsterNS_14default_deleteIS2_EEEENS_9allocatorIS5_EEE16__destroy_vectorclB8ue170006Ev, symObjAddr: 0xA64, symBinAddr: 0x100012500, symSize: 0x90 }
  - { offsetInCU: 0x766C, offset: 0x50996, size: 0x8, addend: 0x0, symName: __ZNSt3__16vectorINS_10unique_ptrI7MonsterNS_14default_deleteIS2_EEEENS_9allocatorIS5_EEE16__destroy_vectorC2B8ue170006ERS8_, symObjAddr: 0xAF4, symBinAddr: 0x100012590, symSize: 0x20 }
  - { offsetInCU: 0x76A5, offset: 0x509CF, size: 0x8, addend: 0x0, symName: __ZNSt3__16vectorINS_10unique_ptrI7MonsterNS_14default_deleteIS2_EEEENS_9allocatorIS5_EEE7__clearB8ue170006Ev, symObjAddr: 0xB14, symBinAddr: 0x1000125B0, symSize: 0x28 }
  - { offsetInCU: 0x76CB, offset: 0x509F5, size: 0x8, addend: 0x0, symName: __ZNKSt3__16vectorINS_10unique_ptrI7MonsterNS_14default_deleteIS2_EEEENS_9allocatorIS5_EEE17__annotate_deleteB8ue170006Ev, symObjAddr: 0xB3C, symBinAddr: 0x1000125D8, symSize: 0xB8 }
  - { offsetInCU: 0x76F1, offset: 0x50A1B, size: 0x8, addend: 0x0, symName: __ZNSt3__116allocator_traitsINS_9allocatorINS_10unique_ptrI7MonsterNS_14default_deleteIS3_EEEEEEE10deallocateB8ue170006ERS7_PS6_m, symObjAddr: 0xBF4, symBinAddr: 0x100012690, symSize: 0x34 }
  - { offsetInCU: 0x7733, offset: 0x50A5D, size: 0x8, addend: 0x0, symName: __ZNSt3__16vectorINS_10unique_ptrI7MonsterNS_14default_deleteIS2_EEEENS_9allocatorIS5_EEE7__allocB8ue170006Ev, symObjAddr: 0xC28, symBinAddr: 0x1000126C4, symSize: 0x28 }
  - { offsetInCU: 0x7759, offset: 0x50A83, size: 0x8, addend: 0x0, symName: __ZNKSt3__16vectorINS_10unique_ptrI7MonsterNS_14default_deleteIS2_EEEENS_9allocatorIS5_EEE8capacityB8ue170006Ev, symObjAddr: 0xC50, symBinAddr: 0x1000126EC, symSize: 0x40 }
  - { offsetInCU: 0x777F, offset: 0x50AA9, size: 0x8, addend: 0x0, symName: __ZNSt3__16vectorINS_10unique_ptrI7MonsterNS_14default_deleteIS2_EEEENS_9allocatorIS5_EEE22__base_destruct_at_endB8ue170006EPS5_, symObjAddr: 0xC90, symBinAddr: 0x10001272C, symSize: 0x8C }
  - { offsetInCU: 0x77C3, offset: 0x50AED, size: 0x8, addend: 0x0, symName: __ZNSt3__116allocator_traitsINS_9allocatorINS_10unique_ptrI7MonsterNS_14default_deleteIS3_EEEEEEE7destroyB8ue170006IS6_vEEvRS7_PT_, symObjAddr: 0xD1C, symBinAddr: 0x1000127B8, symSize: 0x2C }
  - { offsetInCU: 0x7800, offset: 0x50B2A, size: 0x8, addend: 0x0, symName: __ZNSt3__19allocatorINS_10unique_ptrI7MonsterNS_14default_deleteIS2_EEEEE7destroyB8ue170006EPS5_, symObjAddr: 0xD5C, symBinAddr: 0x1000127F8, symSize: 0x28 }
  - { offsetInCU: 0x7833, offset: 0x50B5D, size: 0x8, addend: 0x0, symName: __ZNKSt3__16vectorINS_10unique_ptrI7MonsterNS_14default_deleteIS2_EEEENS_9allocatorIS5_EEE31__annotate_contiguous_containerB8ue170006EPKvSA_SA_SA_, symObjAddr: 0xF14, symBinAddr: 0x100012820, symSize: 0x20 }
  - { offsetInCU: 0x788A, offset: 0x50BB4, size: 0x8, addend: 0x0, symName: __ZNKSt3__16vectorINS_10unique_ptrI7MonsterNS_14default_deleteIS2_EEEENS_9allocatorIS5_EEE4dataB8ue170006Ev, symObjAddr: 0xF34, symBinAddr: 0x100012840, symSize: 0x28 }
  - { offsetInCU: 0x78B0, offset: 0x50BDA, size: 0x8, addend: 0x0, symName: __ZNSt3__19allocatorINS_10unique_ptrI7MonsterNS_14default_deleteIS2_EEEEE10deallocateB8ue170006EPS5_m, symObjAddr: 0xF5C, symBinAddr: 0x100012868, symSize: 0x40 }
  - { offsetInCU: 0x78F2, offset: 0x50C1C, size: 0x8, addend: 0x0, symName: __ZNSt3__117__compressed_pairIPNS_10unique_ptrI7MonsterNS_14default_deleteIS2_EEEENS_9allocatorIS5_EEE6secondB8ue170006Ev, symObjAddr: 0x10C4, symBinAddr: 0x1000128A8, symSize: 0x24 }
  - { offsetInCU: 0x7917, offset: 0x50C41, size: 0x8, addend: 0x0, symName: __ZNSt3__122__compressed_pair_elemINS_9allocatorINS_10unique_ptrI7MonsterNS_14default_deleteIS3_EEEEEELi1ELb1EE5__getB8ue170006Ev, symObjAddr: 0x10E8, symBinAddr: 0x1000128CC, symSize: 0x14 }
  - { offsetInCU: 0x793E, offset: 0x50C68, size: 0x8, addend: 0x0, symName: __ZNKSt3__16vectorINS_10unique_ptrI7MonsterNS_14default_deleteIS2_EEEENS_9allocatorIS5_EEE9__end_capB8ue170006Ev, symObjAddr: 0x10FC, symBinAddr: 0x1000128E0, symSize: 0x28 }
  - { offsetInCU: 0x7964, offset: 0x50C8E, size: 0x8, addend: 0x0, symName: __ZNKSt3__117__compressed_pairIPNS_10unique_ptrI7MonsterNS_14default_deleteIS2_EEEENS_9allocatorIS5_EEE5firstB8ue170006Ev, symObjAddr: 0x1124, symBinAddr: 0x100012908, symSize: 0x24 }
  - { offsetInCU: 0x7989, offset: 0x50CB3, size: 0x8, addend: 0x0, symName: __ZNKSt3__122__compressed_pair_elemIPNS_10unique_ptrI7MonsterNS_14default_deleteIS2_EEEELi0ELb0EE5__getB8ue170006Ev, symObjAddr: 0x1148, symBinAddr: 0x10001292C, symSize: 0x14 }
  - { offsetInCU: 0x79B4, offset: 0x50CDE, size: 0x8, addend: 0x0, symName: __ZNSt3__16vectorINS_10unique_ptrI7MonsterNS_14default_deleteIS2_EEEENS_9allocatorIS5_EEEC2B8ue170006Ev, symObjAddr: 0x1304, symBinAddr: 0x100012940, symSize: 0x4C }
  - { offsetInCU: 0x79E3, offset: 0x50D0D, size: 0x8, addend: 0x0, symName: __ZNSt3__117__compressed_pairIPNS_10unique_ptrI7MonsterNS_14default_deleteIS2_EEEENS_9allocatorIS5_EEEC1B8ue170006IDnNS_18__default_init_tagEEEOT_OT0_, symObjAddr: 0x1350, symBinAddr: 0x10001298C, symSize: 0x3C }
  - { offsetInCU: 0x7A3B, offset: 0x50D65, size: 0x8, addend: 0x0, symName: __ZNSt3__117__compressed_pairIPNS_10unique_ptrI7MonsterNS_14default_deleteIS2_EEEENS_9allocatorIS5_EEEC2B8ue170006IDnNS_18__default_init_tagEEEOT_OT0_, symObjAddr: 0x138C, symBinAddr: 0x1000129C8, symSize: 0x40 }
  - { offsetInCU: 0x7A94, offset: 0x50DBE, size: 0x8, addend: 0x0, symName: __ZNSt3__122__compressed_pair_elemIPNS_10unique_ptrI7MonsterNS_14default_deleteIS2_EEEELi0ELb0EEC2B8ue170006IDnvEEOT_, symObjAddr: 0x13CC, symBinAddr: 0x100012A08, symSize: 0x1C }
  - { offsetInCU: 0x7AD5, offset: 0x50DFF, size: 0x8, addend: 0x0, symName: __ZNSt3__122__compressed_pair_elemINS_9allocatorINS_10unique_ptrI7MonsterNS_14default_deleteIS3_EEEEEELi1ELb1EEC2B8ue170006ENS_18__default_init_tagE, symObjAddr: 0x13E8, symBinAddr: 0x100012A24, symSize: 0x2C }
  - { offsetInCU: 0x7B0A, offset: 0x50E34, size: 0x8, addend: 0x0, symName: __ZNSt3__19allocatorINS_10unique_ptrI7MonsterNS_14default_deleteIS2_EEEEEC2B8ue170006Ev, symObjAddr: 0x1414, symBinAddr: 0x100012A50, symSize: 0x2C }
  - { offsetInCU: 0x7B35, offset: 0x50E5F, size: 0x8, addend: 0x0, symName: __ZNSt3__116__non_trivial_ifILb1ENS_9allocatorINS_10unique_ptrI7MonsterNS_14default_deleteIS3_EEEEEEEC2B8ue170006Ev, symObjAddr: 0x1440, symBinAddr: 0x100012A7C, symSize: 0x14 }
  - { offsetInCU: 0x7B5F, offset: 0x50E89, size: 0x8, addend: 0x0, symName: __ZNSt3__16vectorINS_10unique_ptrI7MonsterNS_14default_deleteIS2_EEEENS_9allocatorIS5_EEE9__end_capB8ue170006Ev, symObjAddr: 0x1454, symBinAddr: 0x100012A90, symSize: 0x28 }
  - { offsetInCU: 0x7B85, offset: 0x50EAF, size: 0x8, addend: 0x0, symName: __ZNSt3__16vectorINS_10unique_ptrI7MonsterNS_14default_deleteIS2_EEEENS_9allocatorIS5_EEE22__construct_one_at_endB8ue170006IJS5_EEEvDpOT_, symObjAddr: 0x147C, symBinAddr: 0x100012AB8, symSize: 0x90 }
  - { offsetInCU: 0x7BD3, offset: 0x50EFD, size: 0x8, addend: 0x0, symName: __ZNSt3__16vectorINS_10unique_ptrI7MonsterNS_14default_deleteIS2_EEEENS_9allocatorIS5_EEE21__push_back_slow_pathIS5_EEvOT_, symObjAddr: 0x150C, symBinAddr: 0x100012B48, symSize: 0xD8 }
  - { offsetInCU: 0x7C32, offset: 0x50F5C, size: 0x8, addend: 0x0, symName: __ZNSt3__117__compressed_pairIPNS_10unique_ptrI7MonsterNS_14default_deleteIS2_EEEENS_9allocatorIS5_EEE5firstB8ue170006Ev, symObjAddr: 0x15E4, symBinAddr: 0x100012C20, symSize: 0x24 }
  - { offsetInCU: 0x7C57, offset: 0x50F81, size: 0x8, addend: 0x0, symName: __ZNSt3__122__compressed_pair_elemIPNS_10unique_ptrI7MonsterNS_14default_deleteIS2_EEEELi0ELb0EE5__getB8ue170006Ev, symObjAddr: 0x1608, symBinAddr: 0x100012C44, symSize: 0x14 }
  - { offsetInCU: 0x7C96, offset: 0x50FC0, size: 0x8, addend: 0x0, symName: __ZNSt3__16vectorINS_10unique_ptrI7MonsterNS_14default_deleteIS2_EEEENS_9allocatorIS5_EEE21_ConstructTransactionC1B8ue170006ERS8_m, symObjAddr: 0x161C, symBinAddr: 0x100012C58, symSize: 0x3C }
  - { offsetInCU: 0x7CDF, offset: 0x51009, size: 0x8, addend: 0x0, symName: __ZNSt3__116allocator_traitsINS_9allocatorINS_10unique_ptrI7MonsterNS_14default_deleteIS3_EEEEEEE9constructB8ue170006IS6_JS6_EvEEvRS7_PT_DpOT0_, symObjAddr: 0x1658, symBinAddr: 0x100012C94, symSize: 0x34 }
  - { offsetInCU: 0x7D35, offset: 0x5105F, size: 0x8, addend: 0x0, symName: __ZNSt3__16vectorINS_10unique_ptrI7MonsterNS_14default_deleteIS2_EEEENS_9allocatorIS5_EEE21_ConstructTransactionD1B8ue170006Ev, symObjAddr: 0x168C, symBinAddr: 0x100012CC8, symSize: 0x2C }
  - { offsetInCU: 0x7D60, offset: 0x5108A, size: 0x8, addend: 0x0, symName: __ZNSt3__16vectorINS_10unique_ptrI7MonsterNS_14default_deleteIS2_EEEENS_9allocatorIS5_EEE21_ConstructTransactionC2B8ue170006ERS8_m, symObjAddr: 0x16B8, symBinAddr: 0x100012CF4, symSize: 0x44 }
  - { offsetInCU: 0x7DA8, offset: 0x510D2, size: 0x8, addend: 0x0, symName: __ZNSt3__19allocatorINS_10unique_ptrI7MonsterNS_14default_deleteIS2_EEEEE9constructB8ue170006IS5_JS5_EEEvPT_DpOT0_, symObjAddr: 0x16FC, symBinAddr: 0x100012D38, symSize: 0x30 }
  - { offsetInCU: 0x7DFE, offset: 0x51128, size: 0x8, addend: 0x0, symName: __ZNSt3__16vectorINS_10unique_ptrI7MonsterNS_14default_deleteIS2_EEEENS_9allocatorIS5_EEE21_ConstructTransactionD2B8ue170006Ev, symObjAddr: 0x18E4, symBinAddr: 0x100012D68, symSize: 0x20 }
  - { offsetInCU: 0x7E27, offset: 0x51151, size: 0x8, addend: 0x0, symName: __ZNKSt3__16vectorINS_10unique_ptrI7MonsterNS_14default_deleteIS2_EEEENS_9allocatorIS5_EEE11__recommendB8ue170006Em, symObjAddr: 0x1904, symBinAddr: 0x100012D88, symSize: 0xB4 }
  - { offsetInCU: 0x7E7D, offset: 0x511A7, size: 0x8, addend: 0x0, symName: __ZNSt3__114__split_bufferINS_10unique_ptrI7MonsterNS_14default_deleteIS2_EEEERNS_9allocatorIS5_EEEC1EmmS8_, symObjAddr: 0x19B8, symBinAddr: 0x100012E3C, symSize: 0x44 }
  - { offsetInCU: 0x7ED3, offset: 0x511FD, size: 0x8, addend: 0x0, symName: __ZNSt3__114__split_bufferINS_10unique_ptrI7MonsterNS_14default_deleteIS2_EEEERNS_9allocatorIS5_EEED1Ev, symObjAddr: 0x1B0C, symBinAddr: 0x100012F90, symSize: 0x2C }
  - { offsetInCU: 0x7EFE, offset: 0x51228, size: 0x8, addend: 0x0, symName: __ZNKSt3__16vectorINS_10unique_ptrI7MonsterNS_14default_deleteIS2_EEEENS_9allocatorIS5_EEE8max_sizeEv, symObjAddr: 0x1B38, symBinAddr: 0x100012FBC, symSize: 0x60 }
  - { offsetInCU: 0x7F27, offset: 0x51251, size: 0x8, addend: 0x0, symName: __ZNKSt3__16vectorINS_10unique_ptrI7MonsterNS_14default_deleteIS2_EEEENS_9allocatorIS5_EEE20__throw_length_errorB8ue170006Ev, symObjAddr: 0x1B98, symBinAddr: 0x10001301C, symSize: 0x1C }
  - { offsetInCU: 0x7F57, offset: 0x51281, size: 0x8, addend: 0x0, symName: __ZNSt3__116allocator_traitsINS_9allocatorINS_10unique_ptrI7MonsterNS_14default_deleteIS3_EEEEEEE8max_sizeB8ue170006IS7_vEEmRKS7_, symObjAddr: 0x1C0C, symBinAddr: 0x100013038, symSize: 0x24 }
  - { offsetInCU: 0x7F85, offset: 0x512AF, size: 0x8, addend: 0x0, symName: __ZNKSt3__16vectorINS_10unique_ptrI7MonsterNS_14default_deleteIS2_EEEENS_9allocatorIS5_EEE7__allocB8ue170006Ev, symObjAddr: 0x1C30, symBinAddr: 0x10001305C, symSize: 0x28 }
  - { offsetInCU: 0x7FAA, offset: 0x512D4, size: 0x8, addend: 0x0, symName: __ZNKSt3__19allocatorINS_10unique_ptrI7MonsterNS_14default_deleteIS2_EEEEE8max_sizeB8ue170006Ev, symObjAddr: 0x1CF4, symBinAddr: 0x100013084, symSize: 0x14 }
  - { offsetInCU: 0x7FD1, offset: 0x512FB, size: 0x8, addend: 0x0, symName: __ZNKSt3__117__compressed_pairIPNS_10unique_ptrI7MonsterNS_14default_deleteIS2_EEEENS_9allocatorIS5_EEE6secondB8ue170006Ev, symObjAddr: 0x1D08, symBinAddr: 0x100013098, symSize: 0x24 }
  - { offsetInCU: 0x7FF6, offset: 0x51320, size: 0x8, addend: 0x0, symName: __ZNKSt3__122__compressed_pair_elemINS_9allocatorINS_10unique_ptrI7MonsterNS_14default_deleteIS3_EEEEEELi1ELb1EE5__getB8ue170006Ev, symObjAddr: 0x1D2C, symBinAddr: 0x1000130BC, symSize: 0x14 }
  - { offsetInCU: 0x801D, offset: 0x51347, size: 0x8, addend: 0x0, symName: __ZNSt3__114__split_bufferINS_10unique_ptrI7MonsterNS_14default_deleteIS2_EEEERNS_9allocatorIS5_EEEC2EmmS8_, symObjAddr: 0x1E80, symBinAddr: 0x1000130D0, symSize: 0xD4 }
  - { offsetInCU: 0x808F, offset: 0x513B9, size: 0x8, addend: 0x0, symName: __ZNSt3__117__compressed_pairIPNS_10unique_ptrI7MonsterNS_14default_deleteIS2_EEEERNS_9allocatorIS5_EEEC1B8ue170006IDnS9_EEOT_OT0_, symObjAddr: 0x1F54, symBinAddr: 0x1000131A4, symSize: 0x3C }
  - { offsetInCU: 0x80E8, offset: 0x51412, size: 0x8, addend: 0x0, symName: __ZNSt3__114__split_bufferINS_10unique_ptrI7MonsterNS_14default_deleteIS2_EEEERNS_9allocatorIS5_EEE7__allocB8ue170006Ev, symObjAddr: 0x1FD0, symBinAddr: 0x100013220, symSize: 0x28 }
  - { offsetInCU: 0x810E, offset: 0x51438, size: 0x8, addend: 0x0, symName: __ZNSt3__114__split_bufferINS_10unique_ptrI7MonsterNS_14default_deleteIS2_EEEERNS_9allocatorIS5_EEE9__end_capB8ue170006Ev, symObjAddr: 0x1FF8, symBinAddr: 0x100013248, symSize: 0x28 }
  - { offsetInCU: 0x8133, offset: 0x5145D, size: 0x8, addend: 0x0, symName: __ZNSt3__117__compressed_pairIPNS_10unique_ptrI7MonsterNS_14default_deleteIS2_EEEERNS_9allocatorIS5_EEEC2B8ue170006IDnS9_EEOT_OT0_, symObjAddr: 0x2020, symBinAddr: 0x100013270, symSize: 0x48 }
  - { offsetInCU: 0x818C, offset: 0x514B6, size: 0x8, addend: 0x0, symName: __ZNSt3__122__compressed_pair_elemIRNS_9allocatorINS_10unique_ptrI7MonsterNS_14default_deleteIS3_EEEEEELi1ELb0EEC2B8ue170006IS8_vEEOT_, symObjAddr: 0x2068, symBinAddr: 0x1000132B8, symSize: 0x20 }
  - { offsetInCU: 0x81CE, offset: 0x514F8, size: 0x8, addend: 0x0, symName: __ZNSt3__19allocatorINS_10unique_ptrI7MonsterNS_14default_deleteIS2_EEEEE8allocateB8ue170006Em, symObjAddr: 0x2088, symBinAddr: 0x1000132D8, symSize: 0x58 }
  - { offsetInCU: 0x8202, offset: 0x5152C, size: 0x8, addend: 0x0, symName: __ZNSt3__117__compressed_pairIPNS_10unique_ptrI7MonsterNS_14default_deleteIS2_EEEERNS_9allocatorIS5_EEE6secondB8ue170006Ev, symObjAddr: 0x21C4, symBinAddr: 0x100013330, symSize: 0x28 }
  - { offsetInCU: 0x8227, offset: 0x51551, size: 0x8, addend: 0x0, symName: __ZNSt3__122__compressed_pair_elemIRNS_9allocatorINS_10unique_ptrI7MonsterNS_14default_deleteIS3_EEEEEELi1ELb0EE5__getB8ue170006Ev, symObjAddr: 0x21EC, symBinAddr: 0x100013358, symSize: 0x18 }
  - { offsetInCU: 0x824E, offset: 0x51578, size: 0x8, addend: 0x0, symName: __ZNSt3__117__compressed_pairIPNS_10unique_ptrI7MonsterNS_14default_deleteIS2_EEEERNS_9allocatorIS5_EEE5firstB8ue170006Ev, symObjAddr: 0x2204, symBinAddr: 0x100013370, symSize: 0x24 }
  - { offsetInCU: 0x8273, offset: 0x5159D, size: 0x8, addend: 0x0, symName: __ZNSt3__116reverse_iteratorIPNS_10unique_ptrI7MonsterNS_14default_deleteIS2_EEEEEC1B8ue170006ES6_, symObjAddr: 0x2354, symBinAddr: 0x1000134C0, symSize: 0x34 }
  - { offsetInCU: 0x82AB, offset: 0x515D5, size: 0x8, addend: 0x0, symName: __ZNKSt3__116reverse_iteratorIPNS_10unique_ptrI7MonsterNS_14default_deleteIS2_EEEEE4baseB8ue170006Ev, symObjAddr: 0x2388, symBinAddr: 0x1000134F4, symSize: 0x18 }
  - { offsetInCU: 0x82D2, offset: 0x515FC, size: 0x8, addend: 0x0, symName: __ZNKSt3__16vectorINS_10unique_ptrI7MonsterNS_14default_deleteIS2_EEEENS_9allocatorIS5_EEE14__annotate_newB8ue170006Em, symObjAddr: 0x23DC, symBinAddr: 0x100013548, symSize: 0xAC }
  - { offsetInCU: 0x8306, offset: 0x51630, size: 0x8, addend: 0x0, symName: __ZNSt3__129_AllocatorDestroyRangeReverseINS_9allocatorINS_10unique_ptrI7MonsterNS_14default_deleteIS3_EEEEEENS_16reverse_iteratorIPS6_EEEC1B8ue170006ERS7_RSA_SD_, symObjAddr: 0x24D4, symBinAddr: 0x100013640, symSize: 0x44 }
  - { offsetInCU: 0x835D, offset: 0x51687, size: 0x8, addend: 0x0, symName: __ZNKSt3__116reverse_iteratorIPNS_10unique_ptrI7MonsterNS_14default_deleteIS2_EEEEEdeB8ue170006Ev, symObjAddr: 0x2584, symBinAddr: 0x1000136F0, symSize: 0x28 }
  - { offsetInCU: 0x8391, offset: 0x516BB, size: 0x8, addend: 0x0, symName: __ZNSt3__116reverse_iteratorIPNS_10unique_ptrI7MonsterNS_14default_deleteIS2_EEEEEppB8ue170006Ev, symObjAddr: 0x25AC, symBinAddr: 0x100013718, symSize: 0x20 }
  - { offsetInCU: 0x83B7, offset: 0x516E1, size: 0x8, addend: 0x0, symName: __ZNSt3__128__exception_guard_exceptionsINS_29_AllocatorDestroyRangeReverseINS_9allocatorINS_10unique_ptrI7MonsterNS_14default_deleteIS4_EEEEEENS_16reverse_iteratorIPS7_EEEEE10__completeB8ue170006Ev, symObjAddr: 0x25CC, symBinAddr: 0x100013738, symSize: 0x1C }
  - { offsetInCU: 0x83DD, offset: 0x51707, size: 0x8, addend: 0x0, symName: __ZNSt3__128__exception_guard_exceptionsINS_29_AllocatorDestroyRangeReverseINS_9allocatorINS_10unique_ptrI7MonsterNS_14default_deleteIS4_EEEEEENS_16reverse_iteratorIPS7_EEEEED1B8ue170006Ev, symObjAddr: 0x25E8, symBinAddr: 0x100013754, symSize: 0x2C }
  - { offsetInCU: 0x8407, offset: 0x51731, size: 0x8, addend: 0x0, symName: __ZNSt3__128__exception_guard_exceptionsINS_29_AllocatorDestroyRangeReverseINS_9allocatorINS_10unique_ptrI7MonsterNS_14default_deleteIS4_EEEEEENS_16reverse_iteratorIPS7_EEEEEC1B8ue170006ESC_, symObjAddr: 0x2614, symBinAddr: 0x100013780, symSize: 0x34 }
  - { offsetInCU: 0x8441, offset: 0x5176B, size: 0x8, addend: 0x0, symName: __ZNSt3__128__exception_guard_exceptionsINS_29_AllocatorDestroyRangeReverseINS_9allocatorINS_10unique_ptrI7MonsterNS_14default_deleteIS4_EEEEEENS_16reverse_iteratorIPS7_EEEEEC2B8ue170006ESC_, symObjAddr: 0x2648, symBinAddr: 0x1000137B4, symSize: 0x30 }
  - { offsetInCU: 0x847A, offset: 0x517A4, size: 0x8, addend: 0x0, symName: __ZNSt3__129_AllocatorDestroyRangeReverseINS_9allocatorINS_10unique_ptrI7MonsterNS_14default_deleteIS3_EEEEEENS_16reverse_iteratorIPS6_EEEC2B8ue170006ERS7_RSA_SD_, symObjAddr: 0x2678, symBinAddr: 0x1000137E4, symSize: 0x38 }
  - { offsetInCU: 0x84D6, offset: 0x51800, size: 0x8, addend: 0x0, symName: __ZNSt3__119__to_address_helperINS_16reverse_iteratorIPNS_10unique_ptrI7MonsterNS_14default_deleteIS3_EEEEEEvE6__callB8ue170006ERKS8_, symObjAddr: 0x26B0, symBinAddr: 0x10001381C, symSize: 0x38 }
  - { offsetInCU: 0x84F9, offset: 0x51823, size: 0x8, addend: 0x0, symName: __ZNKSt3__116reverse_iteratorIPNS_10unique_ptrI7MonsterNS_14default_deleteIS2_EEEEEptB8ue170006Ev, symObjAddr: 0x26E8, symBinAddr: 0x100013854, symSize: 0x24 }
  - { offsetInCU: 0x851E, offset: 0x51848, size: 0x8, addend: 0x0, symName: __ZNSt3__128__exception_guard_exceptionsINS_29_AllocatorDestroyRangeReverseINS_9allocatorINS_10unique_ptrI7MonsterNS_14default_deleteIS4_EEEEEENS_16reverse_iteratorIPS7_EEEEED2B8ue170006Ev, symObjAddr: 0x270C, symBinAddr: 0x100013878, symSize: 0x50 }
  - { offsetInCU: 0x8549, offset: 0x51873, size: 0x8, addend: 0x0, symName: __ZNKSt3__129_AllocatorDestroyRangeReverseINS_9allocatorINS_10unique_ptrI7MonsterNS_14default_deleteIS3_EEEEEENS_16reverse_iteratorIPS6_EEEclB8ue170006Ev, symObjAddr: 0x275C, symBinAddr: 0x1000138C8, symSize: 0xB4 }
  - { offsetInCU: 0x856F, offset: 0x51899, size: 0x8, addend: 0x0, symName: __ZNSt3__116reverse_iteratorINS0_IPNS_10unique_ptrI7MonsterNS_14default_deleteIS2_EEEEEEEC1B8ue170006ES7_, symObjAddr: 0x2880, symBinAddr: 0x1000139EC, symSize: 0x3C }
  - { offsetInCU: 0x85A8, offset: 0x518D2, size: 0x8, addend: 0x0, symName: __ZNSt3__116reverse_iteratorINS0_IPNS_10unique_ptrI7MonsterNS_14default_deleteIS2_EEEEEEEppB8ue170006Ev, symObjAddr: 0x2940, symBinAddr: 0x100013AAC, symSize: 0x30 }
  - { offsetInCU: 0x85CD, offset: 0x518F7, size: 0x8, addend: 0x0, symName: __ZNKSt3__116reverse_iteratorINS0_IPNS_10unique_ptrI7MonsterNS_14default_deleteIS2_EEEEEEE4baseB8ue170006Ev, symObjAddr: 0x2970, symBinAddr: 0x100013ADC, symSize: 0x24 }
  - { offsetInCU: 0x85F9, offset: 0x51923, size: 0x8, addend: 0x0, symName: __ZNSt3__119__to_address_helperINS_16reverse_iteratorINS1_IPNS_10unique_ptrI7MonsterNS_14default_deleteIS3_EEEEEEEEvE6__callB8ue170006ERKS9_, symObjAddr: 0x2994, symBinAddr: 0x100013B00, symSize: 0x38 }
  - { offsetInCU: 0x861C, offset: 0x51946, size: 0x8, addend: 0x0, symName: __ZNKSt3__116reverse_iteratorINS0_IPNS_10unique_ptrI7MonsterNS_14default_deleteIS2_EEEEEEEptB8ue170006Ev, symObjAddr: 0x29CC, symBinAddr: 0x100013B38, symSize: 0x24 }
  - { offsetInCU: 0x8642, offset: 0x5196C, size: 0x8, addend: 0x0, symName: __ZNKSt3__116reverse_iteratorINS0_IPNS_10unique_ptrI7MonsterNS_14default_deleteIS2_EEEEEEEdeB8ue170006Ev, symObjAddr: 0x29F0, symBinAddr: 0x100013B5C, symSize: 0x34 }
  - { offsetInCU: 0x8675, offset: 0x5199F, size: 0x8, addend: 0x0, symName: __ZNSt3__116reverse_iteratorIPNS_10unique_ptrI7MonsterNS_14default_deleteIS2_EEEEEmmB8ue170006Ev, symObjAddr: 0x2A24, symBinAddr: 0x100013B90, symSize: 0x20 }
  - { offsetInCU: 0x869C, offset: 0x519C6, size: 0x8, addend: 0x0, symName: __ZNSt3__116reverse_iteratorINS0_IPNS_10unique_ptrI7MonsterNS_14default_deleteIS2_EEEEEEEC2B8ue170006ES7_, symObjAddr: 0x2A44, symBinAddr: 0x100013BB0, symSize: 0x2C }
  - { offsetInCU: 0x86D4, offset: 0x519FE, size: 0x8, addend: 0x0, symName: __ZNSt3__116reverse_iteratorIPNS_10unique_ptrI7MonsterNS_14default_deleteIS2_EEEEEC2B8ue170006ES6_, symObjAddr: 0x2A70, symBinAddr: 0x100013BDC, symSize: 0x28 }
  - { offsetInCU: 0x870C, offset: 0x51A36, size: 0x8, addend: 0x0, symName: __ZNSt3__114__split_bufferINS_10unique_ptrI7MonsterNS_14default_deleteIS2_EEEERNS_9allocatorIS5_EEED2Ev, symObjAddr: 0x2A98, symBinAddr: 0x100013C04, symSize: 0x8C }
  - { offsetInCU: 0x8738, offset: 0x51A62, size: 0x8, addend: 0x0, symName: __ZNSt3__114__split_bufferINS_10unique_ptrI7MonsterNS_14default_deleteIS2_EEEERNS_9allocatorIS5_EEE5clearB8ue170006Ev, symObjAddr: 0x2B24, symBinAddr: 0x100013C90, symSize: 0x28 }
  - { offsetInCU: 0x875E, offset: 0x51A88, size: 0x8, addend: 0x0, symName: __ZNKSt3__114__split_bufferINS_10unique_ptrI7MonsterNS_14default_deleteIS2_EEEERNS_9allocatorIS5_EEE8capacityB8ue170006Ev, symObjAddr: 0x2B4C, symBinAddr: 0x100013CB8, symSize: 0x40 }
  - { offsetInCU: 0x8784, offset: 0x51AAE, size: 0x8, addend: 0x0, symName: __ZNSt3__114__split_bufferINS_10unique_ptrI7MonsterNS_14default_deleteIS2_EEEERNS_9allocatorIS5_EEE17__destruct_at_endB8ue170006EPS5_, symObjAddr: 0x2B8C, symBinAddr: 0x100013CF8, symSize: 0x2C }
  - { offsetInCU: 0x87B7, offset: 0x51AE1, size: 0x8, addend: 0x0, symName: __ZNSt3__114__split_bufferINS_10unique_ptrI7MonsterNS_14default_deleteIS2_EEEERNS_9allocatorIS5_EEE17__destruct_at_endB8ue170006EPS5_NS_17integral_constantIbLb0EEE, symObjAddr: 0x2BB8, symBinAddr: 0x100013D24, symSize: 0x80 }
  - { offsetInCU: 0x87F9, offset: 0x51B23, size: 0x8, addend: 0x0, symName: __ZNKSt3__114__split_bufferINS_10unique_ptrI7MonsterNS_14default_deleteIS2_EEEERNS_9allocatorIS5_EEE9__end_capB8ue170006Ev, symObjAddr: 0x2C38, symBinAddr: 0x100013DA4, symSize: 0x28 }
  - { offsetInCU: 0x881F, offset: 0x51B49, size: 0x8, addend: 0x0, symName: __ZNKSt3__117__compressed_pairIPNS_10unique_ptrI7MonsterNS_14default_deleteIS2_EEEERNS_9allocatorIS5_EEE5firstB8ue170006Ev, symObjAddr: 0x2C60, symBinAddr: 0x100013DCC, symSize: 0x24 }
  - { offsetInCU: 0x8845, offset: 0x51B6F, size: 0x8, addend: 0x0, symName: __ZNSt3__16vectorINS_10unique_ptrI7MonsterNS_14default_deleteIS2_EEEENS_9allocatorIS5_EEE11__make_iterB8ue170006EPS5_, symObjAddr: 0x2C84, symBinAddr: 0x100013DF0, symSize: 0x30 }
  - { offsetInCU: 0x8879, offset: 0x51BA3, size: 0x8, addend: 0x0, symName: __ZNSt3__111__wrap_iterIPNS_10unique_ptrI7MonsterNS_14default_deleteIS2_EEEEEC1B8ue170006ES6_, symObjAddr: 0x2CB4, symBinAddr: 0x100013E20, symSize: 0x34 }
  - { offsetInCU: 0x88B2, offset: 0x51BDC, size: 0x8, addend: 0x0, symName: __ZNSt3__111__wrap_iterIPNS_10unique_ptrI7MonsterNS_14default_deleteIS2_EEEEEC2B8ue170006ES6_, symObjAddr: 0x2CE8, symBinAddr: 0x100013E54, symSize: 0x20 }
  - { offsetInCU: 0x88EA, offset: 0x51C14, size: 0x8, addend: 0x0, symName: __ZNKSt3__16vectorINS_10unique_ptrI7MonsterNS_14default_deleteIS2_EEEENS_9allocatorIS5_EEE11__make_iterB8ue170006EPKS5_, symObjAddr: 0x2D40, symBinAddr: 0x100013E74, symSize: 0x30 }
  - { offsetInCU: 0x891E, offset: 0x51C48, size: 0x8, addend: 0x0, symName: __ZNSt3__111__wrap_iterIPKNS_10unique_ptrI7MonsterNS_14default_deleteIS2_EEEEEC1B8ue170006ES7_, symObjAddr: 0x2D70, symBinAddr: 0x100013EA4, symSize: 0x34 }
  - { offsetInCU: 0x8957, offset: 0x51C81, size: 0x8, addend: 0x0, symName: __ZNSt3__111__wrap_iterIPKNS_10unique_ptrI7MonsterNS_14default_deleteIS2_EEEEEC2B8ue170006ES7_, symObjAddr: 0x2DA4, symBinAddr: 0x100013ED8, symSize: 0x20 }
  - { offsetInCU: 0x4BF6, offset: 0x56935, size: 0x8, addend: 0x0, symName: __ZN15PotionsMerchantclER6Player, symObjAddr: 0x0, symBinAddr: 0x100013EF8, symSize: 0x60 }
  - { offsetInCU: 0x4C3A, offset: 0x56979, size: 0x8, addend: 0x0, symName: __ZNK15PotionsMerchant14getDescriptionEv, symObjAddr: 0x94, symBinAddr: 0x100013F58, symSize: 0x3C }
  - { offsetInCU: 0x4C67, offset: 0x569A6, size: 0x8, addend: 0x0, symName: __ZN15PotionsMerchantD1Ev, symObjAddr: 0x104, symBinAddr: 0x100013F94, symSize: 0x2C }
  - { offsetInCU: 0x4C91, offset: 0x569D0, size: 0x8, addend: 0x0, symName: __ZN15PotionsMerchantD0Ev, symObjAddr: 0x130, symBinAddr: 0x100013FC0, symSize: 0x30 }
  - { offsetInCU: 0x4CBB, offset: 0x569FA, size: 0x8, addend: 0x0, symName: __ZNK15PotionsMerchant10getOutcomeEv, symObjAddr: 0x160, symBinAddr: 0x100013FF0, symSize: 0x3C }
  - { offsetInCU: 0x4CE1, offset: 0x56A20, size: 0x8, addend: 0x0, symName: __ZN15PotionsMerchantD2Ev, symObjAddr: 0x19C, symBinAddr: 0x10001402C, symSize: 0x48 }
  - { offsetInCU: 0x26, offset: 0x56A7A, size: 0x8, addend: 0x0, symName: __ZN5SlimeC2Ev, symObjAddr: 0x0, symBinAddr: 0x100014074, symSize: 0x9C }
  - { offsetInCU: 0x4A8A, offset: 0x5B4DE, size: 0x8, addend: 0x0, symName: __ZN5SlimeC2Ev, symObjAddr: 0x0, symBinAddr: 0x100014074, symSize: 0x9C }
  - { offsetInCU: 0x4ABB, offset: 0x5B50F, size: 0x8, addend: 0x0, symName: __ZN5SlimeC1Ev, symObjAddr: 0xD0, symBinAddr: 0x100014110, symSize: 0x2C }
  - { offsetInCU: 0x4AE7, offset: 0x5B53B, size: 0x8, addend: 0x0, symName: __ZN5Slime9winBattleEv, symObjAddr: 0xFC, symBinAddr: 0x10001413C, symSize: 0x10 }
  - { offsetInCU: 0x4B0F, offset: 0x5B563, size: 0x8, addend: 0x0, symName: __ZN5Slime10loseBattleEv, symObjAddr: 0x10C, symBinAddr: 0x10001414C, symSize: 0x10 }
  - { offsetInCU: 0x4B37, offset: 0x5B58B, size: 0x8, addend: 0x0, symName: __ZN5SlimeD1Ev, symObjAddr: 0x11C, symBinAddr: 0x10001415C, symSize: 0x2C }
  - { offsetInCU: 0x4B61, offset: 0x5B5B5, size: 0x8, addend: 0x0, symName: __ZN5SlimeD0Ev, symObjAddr: 0x148, symBinAddr: 0x100014188, symSize: 0x30 }
  - { offsetInCU: 0x4B8B, offset: 0x5B5DF, size: 0x8, addend: 0x0, symName: __ZN5SlimeD2Ev, symObjAddr: 0x178, symBinAddr: 0x1000141B8, symSize: 0x2C }
  - { offsetInCU: 0x26, offset: 0x5B634, size: 0x8, addend: 0x0, symName: __ZN5SnailC2Ev, symObjAddr: 0x0, symBinAddr: 0x1000141E4, symSize: 0x9C }
  - { offsetInCU: 0x4A8A, offset: 0x60098, size: 0x8, addend: 0x0, symName: __ZN5SnailC2Ev, symObjAddr: 0x0, symBinAddr: 0x1000141E4, symSize: 0x9C }
  - { offsetInCU: 0x4ABB, offset: 0x600C9, size: 0x8, addend: 0x0, symName: __ZN5SnailC1Ev, symObjAddr: 0xD0, symBinAddr: 0x100014280, symSize: 0x2C }
  - { offsetInCU: 0x4AE7, offset: 0x600F5, size: 0x8, addend: 0x0, symName: __ZN5Snail9winBattleEv, symObjAddr: 0xFC, symBinAddr: 0x1000142AC, symSize: 0x10 }
  - { offsetInCU: 0x4B0F, offset: 0x6011D, size: 0x8, addend: 0x0, symName: __ZN5Snail10loseBattleEv, symObjAddr: 0x10C, symBinAddr: 0x1000142BC, symSize: 0x10 }
  - { offsetInCU: 0x4B37, offset: 0x60145, size: 0x8, addend: 0x0, symName: __ZN5SnailD1Ev, symObjAddr: 0x11C, symBinAddr: 0x1000142CC, symSize: 0x2C }
  - { offsetInCU: 0x4B61, offset: 0x6016F, size: 0x8, addend: 0x0, symName: __ZN5SnailD0Ev, symObjAddr: 0x148, symBinAddr: 0x1000142F8, symSize: 0x30 }
  - { offsetInCU: 0x4B8B, offset: 0x60199, size: 0x8, addend: 0x0, symName: __ZN5SnailD2Ev, symObjAddr: 0x178, symBinAddr: 0x100014328, symSize: 0x2C }
  - { offsetInCU: 0x4BF6, offset: 0x64DBE, size: 0x8, addend: 0x0, symName: __ZN12SolarEclipseclER6Player, symObjAddr: 0x0, symBinAddr: 0x100014354, symSize: 0xA8 }
  - { offsetInCU: 0x4C48, offset: 0x64E10, size: 0x8, addend: 0x0, symName: __ZNK12SolarEclipse14getDescriptionEv, symObjAddr: 0xDC, symBinAddr: 0x1000143FC, symSize: 0x3C }
  - { offsetInCU: 0x4C75, offset: 0x64E3D, size: 0x8, addend: 0x0, symName: __ZN12SolarEclipseD1Ev, symObjAddr: 0x14C, symBinAddr: 0x100014438, symSize: 0x2C }
  - { offsetInCU: 0x4C9F, offset: 0x64E67, size: 0x8, addend: 0x0, symName: __ZN12SolarEclipseD0Ev, symObjAddr: 0x178, symBinAddr: 0x100014464, symSize: 0x30 }
  - { offsetInCU: 0x4CC9, offset: 0x64E91, size: 0x8, addend: 0x0, symName: __ZNK12SolarEclipse10getOutcomeEv, symObjAddr: 0x1A8, symBinAddr: 0x100014494, symSize: 0x3C }
  - { offsetInCU: 0x4CEF, offset: 0x64EB7, size: 0x8, addend: 0x0, symName: __ZN12SolarEclipseD2Ev, symObjAddr: 0x1E4, symBinAddr: 0x1000144D0, symSize: 0x48 }
  - { offsetInCU: 0x26, offset: 0x64F11, size: 0x8, addend: 0x0, symName: __ZN6Archer9winBattleER6PlayerRK7Monster, symObjAddr: 0x0, symBinAddr: 0x100014518, symSize: 0x50 }
  - { offsetInCU: 0x4EE6, offset: 0x69DD1, size: 0x8, addend: 0x0, symName: __ZN6Archer9winBattleER6PlayerRK7Monster, symObjAddr: 0x0, symBinAddr: 0x100014518, symSize: 0x50 }
  - { offsetInCU: 0x4F38, offset: 0x69E23, size: 0x8, addend: 0x0, symName: __ZN6Archer10loseBattleER6PlayerRK7Monster, symObjAddr: 0x50, symBinAddr: 0x100014568, symSize: 0x48 }
  - { offsetInCU: 0x4F8A, offset: 0x69E75, size: 0x8, addend: 0x0, symName: __ZNK6Archer8addForceEiR6Player, symObjAddr: 0x98, symBinAddr: 0x1000145B0, symSize: 0x40 }
  - { offsetInCU: 0x4FDC, offset: 0x69EC7, size: 0x8, addend: 0x0, symName: __ZNK6Archer8getMaxhpEv, symObjAddr: 0xD8, symBinAddr: 0x1000145F0, symSize: 0x14 }
  - { offsetInCU: 0x5004, offset: 0x69EEF, size: 0x8, addend: 0x0, symName: __ZNK6Archer16getStartingCoinsEv, symObjAddr: 0xEC, symBinAddr: 0x100014604, symSize: 0x14 }
  - { offsetInCU: 0x502C, offset: 0x69F17, size: 0x8, addend: 0x0, symName: __ZN6Archer9isMagicalEv, symObjAddr: 0x100, symBinAddr: 0x100014618, symSize: 0x18 }
  - { offsetInCU: 0x5054, offset: 0x69F3F, size: 0x8, addend: 0x0, symName: __ZN6Archer14getCombatPowerER6Player, symObjAddr: 0x118, symBinAddr: 0x100014630, symSize: 0x4C }
  - { offsetInCU: 0x5098, offset: 0x69F83, size: 0x8, addend: 0x0, symName: __ZNK6Archer10getJobNameEv, symObjAddr: 0x164, symBinAddr: 0x10001467C, symSize: 0x3C }
  - { offsetInCU: 0x50C5, offset: 0x69FB0, size: 0x8, addend: 0x0, symName: __ZN6ArcherC2Ev, symObjAddr: 0x1D4, symBinAddr: 0x1000146B8, symSize: 0x44 }
  - { offsetInCU: 0x50F1, offset: 0x69FDC, size: 0x8, addend: 0x0, symName: __ZN3JobC2Ev, symObjAddr: 0x218, symBinAddr: 0x1000146FC, symSize: 0x24 }
  - { offsetInCU: 0x511D, offset: 0x6A008, size: 0x8, addend: 0x0, symName: __ZN6ArcherC1Ev, symObjAddr: 0x23C, symBinAddr: 0x100014720, symSize: 0x2C }
  - { offsetInCU: 0x5149, offset: 0x6A034, size: 0x8, addend: 0x0, symName: __ZN6ArcherD1Ev, symObjAddr: 0x268, symBinAddr: 0x10001474C, symSize: 0x2C }
  - { offsetInCU: 0x5173, offset: 0x6A05E, size: 0x8, addend: 0x0, symName: __ZN6ArcherD0Ev, symObjAddr: 0x294, symBinAddr: 0x100014778, symSize: 0x30 }
  - { offsetInCU: 0x519D, offset: 0x6A088, size: 0x8, addend: 0x0, symName: __ZN3JobD1Ev, symObjAddr: 0x2C4, symBinAddr: 0x1000147A8, symSize: 0x14 }
  - { offsetInCU: 0x51C7, offset: 0x6A0B2, size: 0x8, addend: 0x0, symName: __ZN3JobD0Ev, symObjAddr: 0x2D8, symBinAddr: 0x1000147BC, symSize: 0xC }
  - { offsetInCU: 0x51F1, offset: 0x6A0DC, size: 0x8, addend: 0x0, symName: __ZN6ArcherD2Ev, symObjAddr: 0x2E4, symBinAddr: 0x1000147C8, symSize: 0x2C }
  - { offsetInCU: 0x521B, offset: 0x6A106, size: 0x8, addend: 0x0, symName: __ZN3JobD2Ev, symObjAddr: 0x310, symBinAddr: 0x1000147F4, symSize: 0x14 }
  - { offsetInCU: 0x6212, offset: 0x7034C, size: 0x8, addend: 0x0, symName: __ZN9Character15createCharacterERKNSt3__112basic_stringIcNS0_11char_traitsIcEENS0_9allocatorIcEEEE, symObjAddr: 0x0, symBinAddr: 0x100014808, symSize: 0x194 }
  - { offsetInCU: 0x62CF, offset: 0x70409, size: 0x8, addend: 0x0, symName: __ZNSt3__110shared_ptrI9CharacterEC1B8ue170006I11ResponsiblevEEPT_, symObjAddr: 0x240, symBinAddr: 0x10001499C, symSize: 0x34 }
  - { offsetInCU: 0x63AA, offset: 0x704E4, size: 0x8, addend: 0x0, symName: __ZNSt3__110shared_ptrI9CharacterEC1B8ue170006I10RiskTakingvEEPT_, symObjAddr: 0x274, symBinAddr: 0x1000149D0, symSize: 0x34 }
  - { offsetInCU: 0x63ED, offset: 0x70527, size: 0x8, addend: 0x0, symName: __ZNSt3__110shared_ptrI9CharacterEC2B8ue170006I11ResponsiblevEEPT_, symObjAddr: 0x4AC, symBinAddr: 0x100014A04, symSize: 0xEC }
  - { offsetInCU: 0x64DB, offset: 0x70615, size: 0x8, addend: 0x0, symName: __ZNSt3__110unique_ptrI11ResponsibleNS_14default_deleteIS1_EEEC1B8ue170006ILb1EvEEPS1_, symObjAddr: 0x598, symBinAddr: 0x100014AF0, symSize: 0x34 }
  - { offsetInCU: 0x653C, offset: 0x70676, size: 0x8, addend: 0x0, symName: __ZNSt3__19allocatorI11ResponsibleEC1B8ue170006Ev, symObjAddr: 0x5CC, symBinAddr: 0x100014B24, symSize: 0x2C }
  - { offsetInCU: 0x6601, offset: 0x7073B, size: 0x8, addend: 0x0, symName: __ZNSt3__120__shared_ptr_pointerIP11ResponsibleNS_10shared_ptrI9CharacterE27__shared_ptr_default_deleteIS4_S1_EENS_9allocatorIS1_EEEC1B8ue170006ES2_S7_S9_, symObjAddr: 0x5F8, symBinAddr: 0x100014B50, symSize: 0x34 }
  - { offsetInCU: 0x6655, offset: 0x7078F, size: 0x8, addend: 0x0, symName: __ZNSt3__110unique_ptrI11ResponsibleNS_14default_deleteIS1_EEE7releaseB8ue170006Ev, symObjAddr: 0x62C, symBinAddr: 0x100014B84, symSize: 0x44 }
  - { offsetInCU: 0x668A, offset: 0x707C4, size: 0x8, addend: 0x0, symName: __ZNSt3__110shared_ptrI9CharacterE18__enable_weak_thisB8ue170006Ez, symObjAddr: 0x670, symBinAddr: 0x100014BC8, symSize: 0x10 }
  - { offsetInCU: 0x66B1, offset: 0x707EB, size: 0x8, addend: 0x0, symName: __ZNSt3__110unique_ptrI11ResponsibleNS_14default_deleteIS1_EEED1B8ue170006Ev, symObjAddr: 0x680, symBinAddr: 0x100014BD8, symSize: 0x2C }
  - { offsetInCU: 0x66DB, offset: 0x70815, size: 0x8, addend: 0x0, symName: __ZNSt3__110unique_ptrI11ResponsibleNS_14default_deleteIS1_EEEC2B8ue170006ILb1EvEEPS1_, symObjAddr: 0x6AC, symBinAddr: 0x100014C04, symSize: 0x44 }
  - { offsetInCU: 0x6723, offset: 0x7085D, size: 0x8, addend: 0x0, symName: __ZNSt3__117__compressed_pairIP11ResponsibleNS_14default_deleteIS1_EEEC1B8ue170006IRS2_NS_16__value_init_tagEEEOT_OT0_, symObjAddr: 0x6F0, symBinAddr: 0x100014C48, symSize: 0x3C }
  - { offsetInCU: 0x677B, offset: 0x708B5, size: 0x8, addend: 0x0, symName: __ZNSt3__117__compressed_pairIP11ResponsibleNS_14default_deleteIS1_EEEC2B8ue170006IRS2_NS_16__value_init_tagEEEOT_OT0_, symObjAddr: 0x72C, symBinAddr: 0x100014C84, symSize: 0x40 }
  - { offsetInCU: 0x67D3, offset: 0x7090D, size: 0x8, addend: 0x0, symName: __ZNSt3__122__compressed_pair_elemIP11ResponsibleLi0ELb0EEC2B8ue170006IRS2_vEEOT_, symObjAddr: 0x76C, symBinAddr: 0x100014CC4, symSize: 0x24 }
  - { offsetInCU: 0x6815, offset: 0x7094F, size: 0x8, addend: 0x0, symName: __ZNSt3__122__compressed_pair_elemINS_14default_deleteI11ResponsibleEELi1ELb1EEC2B8ue170006ENS_16__value_init_tagE, symObjAddr: 0x790, symBinAddr: 0x100014CE8, symSize: 0x14 }
  - { offsetInCU: 0x684A, offset: 0x70984, size: 0x8, addend: 0x0, symName: __ZNSt3__19allocatorI11ResponsibleEC2B8ue170006Ev, symObjAddr: 0x7A4, symBinAddr: 0x100014CFC, symSize: 0x2C }
  - { offsetInCU: 0x6874, offset: 0x709AE, size: 0x8, addend: 0x0, symName: __ZNSt3__116__non_trivial_ifILb1ENS_9allocatorI11ResponsibleEEEC2B8ue170006Ev, symObjAddr: 0x7D0, symBinAddr: 0x100014D28, symSize: 0x14 }
  - { offsetInCU: 0x689E, offset: 0x709D8, size: 0x8, addend: 0x0, symName: __ZNSt3__120__shared_ptr_pointerIP11ResponsibleNS_10shared_ptrI9CharacterE27__shared_ptr_default_deleteIS4_S1_EENS_9allocatorIS1_EEEC2B8ue170006ES2_S7_S9_, symObjAddr: 0x7E4, symBinAddr: 0x100014D3C, symSize: 0xA8 }
  - { offsetInCU: 0x68F2, offset: 0x70A2C, size: 0x8, addend: 0x0, symName: __ZNSt3__119__shared_weak_countC2B8ue170006El, symObjAddr: 0x88C, symBinAddr: 0x100014DE4, symSize: 0x54 }
  - { offsetInCU: 0x692F, offset: 0x70A69, size: 0x8, addend: 0x0, symName: __ZNSt3__117__compressed_pairIP11ResponsibleNS_10shared_ptrI9CharacterE27__shared_ptr_default_deleteIS4_S1_EEEC1B8ue170006IRS2_S7_EEOT_OT0_, symObjAddr: 0x8E0, symBinAddr: 0x100014E38, symSize: 0x3C }
  - { offsetInCU: 0x6991, offset: 0x70ACB, size: 0x8, addend: 0x0, symName: __ZNSt3__117__compressed_pairINS0_IP11ResponsibleNS_10shared_ptrI9CharacterE27__shared_ptr_default_deleteIS4_S1_EEEENS_9allocatorIS1_EEEC1B8ue170006IS8_SA_EEOT_OT0_, symObjAddr: 0x91C, symBinAddr: 0x100014E74, symSize: 0x3C }
  - { offsetInCU: 0x69E9, offset: 0x70B23, size: 0x8, addend: 0x0, symName: __ZNSt3__120__shared_ptr_pointerIP11ResponsibleNS_10shared_ptrI9CharacterE27__shared_ptr_default_deleteIS4_S1_EENS_9allocatorIS1_EEED1Ev, symObjAddr: 0x958, symBinAddr: 0x100014EB0, symSize: 0x2C }
  - { offsetInCU: 0x6A15, offset: 0x70B4F, size: 0x8, addend: 0x0, symName: __ZNSt3__120__shared_ptr_pointerIP11ResponsibleNS_10shared_ptrI9CharacterE27__shared_ptr_default_deleteIS4_S1_EENS_9allocatorIS1_EEED0Ev, symObjAddr: 0x984, symBinAddr: 0x100014EDC, symSize: 0x30 }
  - { offsetInCU: 0x6A41, offset: 0x70B7B, size: 0x8, addend: 0x0, symName: __ZNSt3__120__shared_ptr_pointerIP11ResponsibleNS_10shared_ptrI9CharacterE27__shared_ptr_default_deleteIS4_S1_EENS_9allocatorIS1_EEE16__on_zero_sharedEv, symObjAddr: 0x9B4, symBinAddr: 0x100014F0C, symSize: 0x64 }
  - { offsetInCU: 0x6A69, offset: 0x70BA3, size: 0x8, addend: 0x0, symName: __ZNKSt3__120__shared_ptr_pointerIP11ResponsibleNS_10shared_ptrI9CharacterE27__shared_ptr_default_deleteIS4_S1_EENS_9allocatorIS1_EEE13__get_deleterERKSt9type_info, symObjAddr: 0xA18, symBinAddr: 0x100014F70, symSize: 0x68 }
  - { offsetInCU: 0x6A9E, offset: 0x70BD8, size: 0x8, addend: 0x0, symName: __ZNSt3__120__shared_ptr_pointerIP11ResponsibleNS_10shared_ptrI9CharacterE27__shared_ptr_default_deleteIS4_S1_EENS_9allocatorIS1_EEE21__on_zero_shared_weakEv, symObjAddr: 0xA80, symBinAddr: 0x100014FD8, symSize: 0x60 }
  - { offsetInCU: 0x6AE1, offset: 0x70C1B, size: 0x8, addend: 0x0, symName: __ZNSt3__114__shared_countC2B8ue170006El, symObjAddr: 0xAE0, symBinAddr: 0x100015038, symSize: 0x30 }
  - { offsetInCU: 0x6B19, offset: 0x70C53, size: 0x8, addend: 0x0, symName: __ZNSt3__117__compressed_pairIP11ResponsibleNS_10shared_ptrI9CharacterE27__shared_ptr_default_deleteIS4_S1_EEEC2B8ue170006IRS2_S7_EEOT_OT0_, symObjAddr: 0xB10, symBinAddr: 0x100015068, symSize: 0x44 }
  - { offsetInCU: 0x6B71, offset: 0x70CAB, size: 0x8, addend: 0x0, symName: __ZNSt3__122__compressed_pair_elemINS_10shared_ptrI9CharacterE27__shared_ptr_default_deleteIS2_11ResponsibleEELi1ELb1EEC2B8ue170006IS6_vEEOT_, symObjAddr: 0xB54, symBinAddr: 0x1000150AC, symSize: 0x18 }
  - { offsetInCU: 0x6BB3, offset: 0x70CED, size: 0x8, addend: 0x0, symName: __ZNSt3__117__compressed_pairINS0_IP11ResponsibleNS_10shared_ptrI9CharacterE27__shared_ptr_default_deleteIS4_S1_EEEENS_9allocatorIS1_EEEC2B8ue170006IS8_SA_EEOT_OT0_, symObjAddr: 0xB6C, symBinAddr: 0x1000150C4, symSize: 0x44 }
  - { offsetInCU: 0x6C0B, offset: 0x70D45, size: 0x8, addend: 0x0, symName: __ZNSt3__122__compressed_pair_elemINS_17__compressed_pairIP11ResponsibleNS_10shared_ptrI9CharacterE27__shared_ptr_default_deleteIS5_S2_EEEELi0ELb0EEC2B8ue170006IS9_vEEOT_, symObjAddr: 0xBB0, symBinAddr: 0x100015108, symSize: 0x24 }
  - { offsetInCU: 0x6C4D, offset: 0x70D87, size: 0x8, addend: 0x0, symName: __ZNSt3__122__compressed_pair_elemINS_9allocatorI11ResponsibleEELi1ELb1EEC2B8ue170006IS3_vEEOT_, symObjAddr: 0xBD4, symBinAddr: 0x10001512C, symSize: 0x18 }
  - { offsetInCU: 0x6C8F, offset: 0x70DC9, size: 0x8, addend: 0x0, symName: __ZNSt3__120__shared_ptr_pointerIP11ResponsibleNS_10shared_ptrI9CharacterE27__shared_ptr_default_deleteIS4_S1_EENS_9allocatorIS1_EEED2Ev, symObjAddr: 0xBEC, symBinAddr: 0x100015144, symSize: 0x2C }
  - { offsetInCU: 0x6CBB, offset: 0x70DF5, size: 0x8, addend: 0x0, symName: __ZNSt3__117__compressed_pairINS0_IP11ResponsibleNS_10shared_ptrI9CharacterE27__shared_ptr_default_deleteIS4_S1_EEEENS_9allocatorIS1_EEE5firstB8ue170006Ev, symObjAddr: 0xC18, symBinAddr: 0x100015170, symSize: 0x24 }
  - { offsetInCU: 0x6CE1, offset: 0x70E1B, size: 0x8, addend: 0x0, symName: __ZNSt3__117__compressed_pairIP11ResponsibleNS_10shared_ptrI9CharacterE27__shared_ptr_default_deleteIS4_S1_EEE6secondB8ue170006Ev, symObjAddr: 0xC3C, symBinAddr: 0x100015194, symSize: 0x24 }
  - { offsetInCU: 0x6D07, offset: 0x70E41, size: 0x8, addend: 0x0, symName: __ZNKSt3__114default_deleteI11ResponsibleEclB8ue170006EPS1_, symObjAddr: 0xC60, symBinAddr: 0x1000151B8, symSize: 0x4C }
  - { offsetInCU: 0x6D3B, offset: 0x70E75, size: 0x8, addend: 0x0, symName: __ZNSt3__117__compressed_pairIP11ResponsibleNS_10shared_ptrI9CharacterE27__shared_ptr_default_deleteIS4_S1_EEE5firstB8ue170006Ev, symObjAddr: 0xCAC, symBinAddr: 0x100015204, symSize: 0x24 }
  - { offsetInCU: 0x6D61, offset: 0x70E9B, size: 0x8, addend: 0x0, symName: __ZNSt3__122__compressed_pair_elemINS_17__compressed_pairIP11ResponsibleNS_10shared_ptrI9CharacterE27__shared_ptr_default_deleteIS5_S2_EEEELi0ELb0EE5__getB8ue170006Ev, symObjAddr: 0xCD0, symBinAddr: 0x100015228, symSize: 0x14 }
  - { offsetInCU: 0x6D87, offset: 0x70EC1, size: 0x8, addend: 0x0, symName: __ZNSt3__122__compressed_pair_elemINS_10shared_ptrI9CharacterE27__shared_ptr_default_deleteIS2_11ResponsibleEELi1ELb1EE5__getB8ue170006Ev, symObjAddr: 0xCE4, symBinAddr: 0x10001523C, symSize: 0x14 }
  - { offsetInCU: 0x6DAD, offset: 0x70EE7, size: 0x8, addend: 0x0, symName: __ZNSt3__122__compressed_pair_elemIP11ResponsibleLi0ELb0EE5__getB8ue170006Ev, symObjAddr: 0xCF8, symBinAddr: 0x100015250, symSize: 0x14 }
  - { offsetInCU: 0x6E09, offset: 0x70F43, size: 0x8, addend: 0x0, symName: __ZNKSt9type_infoeqB8ue170006ERKS_, symObjAddr: 0xD0C, symBinAddr: 0x100015264, symSize: 0xDC }
  - { offsetInCU: 0x6EA7, offset: 0x70FE1, size: 0x8, addend: 0x0, symName: __ZNKSt3__117__compressed_pairINS0_IP11ResponsibleNS_10shared_ptrI9CharacterE27__shared_ptr_default_deleteIS4_S1_EEEENS_9allocatorIS1_EEE5firstB8ue170006Ev, symObjAddr: 0xDE8, symBinAddr: 0x100015340, symSize: 0x24 }
  - { offsetInCU: 0x6ECD, offset: 0x71007, size: 0x8, addend: 0x0, symName: __ZNKSt3__117__compressed_pairIP11ResponsibleNS_10shared_ptrI9CharacterE27__shared_ptr_default_deleteIS4_S1_EEE6secondB8ue170006Ev, symObjAddr: 0xE0C, symBinAddr: 0x100015364, symSize: 0x24 }
  - { offsetInCU: 0x6EF3, offset: 0x7102D, size: 0x8, addend: 0x0, symName: __ZNSt27__type_info_implementations30__non_unique_arm_rtti_bit_impl21__is_type_name_uniqueB8ue170006Em, symObjAddr: 0xE30, symBinAddr: 0x100015388, symSize: 0x20 }
  - { offsetInCU: 0x6F17, offset: 0x71051, size: 0x8, addend: 0x0, symName: __ZNKSt3__122__compressed_pair_elemINS_17__compressed_pairIP11ResponsibleNS_10shared_ptrI9CharacterE27__shared_ptr_default_deleteIS5_S2_EEEELi0ELb0EE5__getB8ue170006Ev, symObjAddr: 0xE50, symBinAddr: 0x1000153A8, symSize: 0x14 }
  - { offsetInCU: 0x6F3D, offset: 0x71077, size: 0x8, addend: 0x0, symName: __ZNKSt3__122__compressed_pair_elemINS_10shared_ptrI9CharacterE27__shared_ptr_default_deleteIS2_11ResponsibleEELi1ELb1EE5__getB8ue170006Ev, symObjAddr: 0xE64, symBinAddr: 0x1000153BC, symSize: 0x14 }
  - { offsetInCU: 0x6F63, offset: 0x7109D, size: 0x8, addend: 0x0, symName: __ZNSt3__117__compressed_pairINS0_IP11ResponsibleNS_10shared_ptrI9CharacterE27__shared_ptr_default_deleteIS4_S1_EEEENS_9allocatorIS1_EEE6secondB8ue170006Ev, symObjAddr: 0xE78, symBinAddr: 0x1000153D0, symSize: 0x24 }
  - { offsetInCU: 0x6FB1, offset: 0x710EB, size: 0x8, addend: 0x0, symName: __ZNSt3__19allocatorINS_20__shared_ptr_pointerIP11ResponsibleNS_10shared_ptrI9CharacterE27__shared_ptr_default_deleteIS5_S2_EENS0_IS2_EEEEEC1B8ue170006IS2_EERKNS0_IT_EE, symObjAddr: 0xE9C, symBinAddr: 0x1000153F4, symSize: 0x34 }
  - { offsetInCU: 0x6FEF, offset: 0x71129, size: 0x8, addend: 0x0, symName: __ZNSt3__19allocatorINS_20__shared_ptr_pointerIP11ResponsibleNS_10shared_ptrI9CharacterE27__shared_ptr_default_deleteIS5_S2_EENS0_IS2_EEEEE10deallocateB8ue170006EPSA_m, symObjAddr: 0xED0, symBinAddr: 0x100015428, symSize: 0x40 }
  - { offsetInCU: 0x7031, offset: 0x7116B, size: 0x8, addend: 0x0, symName: __ZNSt3__114pointer_traitsIPNS_20__shared_ptr_pointerIP11ResponsibleNS_10shared_ptrI9CharacterE27__shared_ptr_default_deleteIS5_S2_EENS_9allocatorIS2_EEEEE10pointer_toB8ue170006ERSB_, symObjAddr: 0xF10, symBinAddr: 0x100015468, symSize: 0x14 }
  - { offsetInCU: 0x7054, offset: 0x7118E, size: 0x8, addend: 0x0, symName: __ZNSt3__122__compressed_pair_elemINS_9allocatorI11ResponsibleEELi1ELb1EE5__getB8ue170006Ev, symObjAddr: 0xF24, symBinAddr: 0x10001547C, symSize: 0x14 }
  - { offsetInCU: 0x707A, offset: 0x711B4, size: 0x8, addend: 0x0, symName: __ZNSt3__19allocatorINS_20__shared_ptr_pointerIP11ResponsibleNS_10shared_ptrI9CharacterE27__shared_ptr_default_deleteIS5_S2_EENS0_IS2_EEEEEC2B8ue170006IS2_EERKNS0_IT_EE, symObjAddr: 0xF38, symBinAddr: 0x100015490, symSize: 0x30 }
  - { offsetInCU: 0x70B8, offset: 0x711F2, size: 0x8, addend: 0x0, symName: __ZNSt3__116__non_trivial_ifILb1ENS_9allocatorINS_20__shared_ptr_pointerIP11ResponsibleNS_10shared_ptrI9CharacterE27__shared_ptr_default_deleteIS6_S3_EENS1_IS3_EEEEEEEC2B8ue170006Ev, symObjAddr: 0xF68, symBinAddr: 0x1000154C0, symSize: 0x14 }
  - { offsetInCU: 0x70E2, offset: 0x7121C, size: 0x8, addend: 0x0, symName: __ZNSt3__117__compressed_pairIP11ResponsibleNS_14default_deleteIS1_EEE5firstB8ue170006Ev, symObjAddr: 0x10A4, symBinAddr: 0x1000154D4, symSize: 0x24 }
  - { offsetInCU: 0x7108, offset: 0x71242, size: 0x8, addend: 0x0, symName: __ZNSt3__110unique_ptrI11ResponsibleNS_14default_deleteIS1_EEED2B8ue170006Ev, symObjAddr: 0x10C8, symBinAddr: 0x1000154F8, symSize: 0x30 }
  - { offsetInCU: 0x7132, offset: 0x7126C, size: 0x8, addend: 0x0, symName: __ZNSt3__110unique_ptrI11ResponsibleNS_14default_deleteIS1_EEE5resetB8ue170006EPS1_, symObjAddr: 0x10F8, symBinAddr: 0x100015528, symSize: 0x78 }
  - { offsetInCU: 0x7176, offset: 0x712B0, size: 0x8, addend: 0x0, symName: __ZNSt3__117__compressed_pairIP11ResponsibleNS_14default_deleteIS1_EEE6secondB8ue170006Ev, symObjAddr: 0x1170, symBinAddr: 0x1000155A0, symSize: 0x24 }
  - { offsetInCU: 0x719C, offset: 0x712D6, size: 0x8, addend: 0x0, symName: __ZNSt3__122__compressed_pair_elemINS_14default_deleteI11ResponsibleEELi1ELb1EE5__getB8ue170006Ev, symObjAddr: 0x1194, symBinAddr: 0x1000155C4, symSize: 0x14 }
  - { offsetInCU: 0x71C2, offset: 0x712FC, size: 0x8, addend: 0x0, symName: __ZNSt3__110shared_ptrI9CharacterEC2B8ue170006I10RiskTakingvEEPT_, symObjAddr: 0x11A8, symBinAddr: 0x1000155D8, symSize: 0xEC }
  - { offsetInCU: 0x72B0, offset: 0x713EA, size: 0x8, addend: 0x0, symName: __ZNSt3__110unique_ptrI10RiskTakingNS_14default_deleteIS1_EEEC1B8ue170006ILb1EvEEPS1_, symObjAddr: 0x1294, symBinAddr: 0x1000156C4, symSize: 0x34 }
  - { offsetInCU: 0x7311, offset: 0x7144B, size: 0x8, addend: 0x0, symName: __ZNSt3__19allocatorI10RiskTakingEC1B8ue170006Ev, symObjAddr: 0x12C8, symBinAddr: 0x1000156F8, symSize: 0x2C }
  - { offsetInCU: 0x73D6, offset: 0x71510, size: 0x8, addend: 0x0, symName: __ZNSt3__120__shared_ptr_pointerIP10RiskTakingNS_10shared_ptrI9CharacterE27__shared_ptr_default_deleteIS4_S1_EENS_9allocatorIS1_EEEC1B8ue170006ES2_S7_S9_, symObjAddr: 0x12F4, symBinAddr: 0x100015724, symSize: 0x34 }
  - { offsetInCU: 0x742A, offset: 0x71564, size: 0x8, addend: 0x0, symName: __ZNSt3__110unique_ptrI10RiskTakingNS_14default_deleteIS1_EEE7releaseB8ue170006Ev, symObjAddr: 0x1328, symBinAddr: 0x100015758, symSize: 0x44 }
  - { offsetInCU: 0x745F, offset: 0x71599, size: 0x8, addend: 0x0, symName: __ZNSt3__110unique_ptrI10RiskTakingNS_14default_deleteIS1_EEED1B8ue170006Ev, symObjAddr: 0x136C, symBinAddr: 0x10001579C, symSize: 0x2C }
  - { offsetInCU: 0x7489, offset: 0x715C3, size: 0x8, addend: 0x0, symName: __ZNSt3__110unique_ptrI10RiskTakingNS_14default_deleteIS1_EEEC2B8ue170006ILb1EvEEPS1_, symObjAddr: 0x1398, symBinAddr: 0x1000157C8, symSize: 0x44 }
  - { offsetInCU: 0x74CC, offset: 0x71606, size: 0x8, addend: 0x0, symName: __ZNSt3__117__compressed_pairIP10RiskTakingNS_14default_deleteIS1_EEEC1B8ue170006IRS2_NS_16__value_init_tagEEEOT_OT0_, symObjAddr: 0x13DC, symBinAddr: 0x10001580C, symSize: 0x3C }
  - { offsetInCU: 0x7524, offset: 0x7165E, size: 0x8, addend: 0x0, symName: __ZNSt3__117__compressed_pairIP10RiskTakingNS_14default_deleteIS1_EEEC2B8ue170006IRS2_NS_16__value_init_tagEEEOT_OT0_, symObjAddr: 0x1418, symBinAddr: 0x100015848, symSize: 0x40 }
  - { offsetInCU: 0x757C, offset: 0x716B6, size: 0x8, addend: 0x0, symName: __ZNSt3__122__compressed_pair_elemIP10RiskTakingLi0ELb0EEC2B8ue170006IRS2_vEEOT_, symObjAddr: 0x1458, symBinAddr: 0x100015888, symSize: 0x24 }
  - { offsetInCU: 0x75BE, offset: 0x716F8, size: 0x8, addend: 0x0, symName: __ZNSt3__122__compressed_pair_elemINS_14default_deleteI10RiskTakingEELi1ELb1EEC2B8ue170006ENS_16__value_init_tagE, symObjAddr: 0x147C, symBinAddr: 0x1000158AC, symSize: 0x14 }
  - { offsetInCU: 0x75F3, offset: 0x7172D, size: 0x8, addend: 0x0, symName: __ZNSt3__19allocatorI10RiskTakingEC2B8ue170006Ev, symObjAddr: 0x1490, symBinAddr: 0x1000158C0, symSize: 0x2C }
  - { offsetInCU: 0x761D, offset: 0x71757, size: 0x8, addend: 0x0, symName: __ZNSt3__116__non_trivial_ifILb1ENS_9allocatorI10RiskTakingEEEC2B8ue170006Ev, symObjAddr: 0x14BC, symBinAddr: 0x1000158EC, symSize: 0x14 }
  - { offsetInCU: 0x7647, offset: 0x71781, size: 0x8, addend: 0x0, symName: __ZNSt3__120__shared_ptr_pointerIP10RiskTakingNS_10shared_ptrI9CharacterE27__shared_ptr_default_deleteIS4_S1_EENS_9allocatorIS1_EEEC2B8ue170006ES2_S7_S9_, symObjAddr: 0x14D0, symBinAddr: 0x100015900, symSize: 0xA8 }
  - { offsetInCU: 0x76A0, offset: 0x717DA, size: 0x8, addend: 0x0, symName: __ZNSt3__117__compressed_pairIP10RiskTakingNS_10shared_ptrI9CharacterE27__shared_ptr_default_deleteIS4_S1_EEEC1B8ue170006IRS2_S7_EEOT_OT0_, symObjAddr: 0x1578, symBinAddr: 0x1000159A8, symSize: 0x3C }
  - { offsetInCU: 0x7702, offset: 0x7183C, size: 0x8, addend: 0x0, symName: __ZNSt3__117__compressed_pairINS0_IP10RiskTakingNS_10shared_ptrI9CharacterE27__shared_ptr_default_deleteIS4_S1_EEEENS_9allocatorIS1_EEEC1B8ue170006IS8_SA_EEOT_OT0_, symObjAddr: 0x15B4, symBinAddr: 0x1000159E4, symSize: 0x3C }
  - { offsetInCU: 0x775A, offset: 0x71894, size: 0x8, addend: 0x0, symName: __ZNSt3__120__shared_ptr_pointerIP10RiskTakingNS_10shared_ptrI9CharacterE27__shared_ptr_default_deleteIS4_S1_EENS_9allocatorIS1_EEED1Ev, symObjAddr: 0x15F0, symBinAddr: 0x100015A20, symSize: 0x2C }
  - { offsetInCU: 0x7786, offset: 0x718C0, size: 0x8, addend: 0x0, symName: __ZNSt3__120__shared_ptr_pointerIP10RiskTakingNS_10shared_ptrI9CharacterE27__shared_ptr_default_deleteIS4_S1_EENS_9allocatorIS1_EEED0Ev, symObjAddr: 0x161C, symBinAddr: 0x100015A4C, symSize: 0x30 }
  - { offsetInCU: 0x77B2, offset: 0x718EC, size: 0x8, addend: 0x0, symName: __ZNSt3__120__shared_ptr_pointerIP10RiskTakingNS_10shared_ptrI9CharacterE27__shared_ptr_default_deleteIS4_S1_EENS_9allocatorIS1_EEE16__on_zero_sharedEv, symObjAddr: 0x164C, symBinAddr: 0x100015A7C, symSize: 0x64 }
  - { offsetInCU: 0x77DA, offset: 0x71914, size: 0x8, addend: 0x0, symName: __ZNKSt3__120__shared_ptr_pointerIP10RiskTakingNS_10shared_ptrI9CharacterE27__shared_ptr_default_deleteIS4_S1_EENS_9allocatorIS1_EEE13__get_deleterERKSt9type_info, symObjAddr: 0x16B0, symBinAddr: 0x100015AE0, symSize: 0x68 }
  - { offsetInCU: 0x780F, offset: 0x71949, size: 0x8, addend: 0x0, symName: __ZNSt3__120__shared_ptr_pointerIP10RiskTakingNS_10shared_ptrI9CharacterE27__shared_ptr_default_deleteIS4_S1_EENS_9allocatorIS1_EEE21__on_zero_shared_weakEv, symObjAddr: 0x1718, symBinAddr: 0x100015B48, symSize: 0x60 }
  - { offsetInCU: 0x7852, offset: 0x7198C, size: 0x8, addend: 0x0, symName: __ZNSt3__117__compressed_pairIP10RiskTakingNS_10shared_ptrI9CharacterE27__shared_ptr_default_deleteIS4_S1_EEEC2B8ue170006IRS2_S7_EEOT_OT0_, symObjAddr: 0x1778, symBinAddr: 0x100015BA8, symSize: 0x44 }
  - { offsetInCU: 0x78AA, offset: 0x719E4, size: 0x8, addend: 0x0, symName: __ZNSt3__122__compressed_pair_elemINS_10shared_ptrI9CharacterE27__shared_ptr_default_deleteIS2_10RiskTakingEELi1ELb1EEC2B8ue170006IS6_vEEOT_, symObjAddr: 0x17BC, symBinAddr: 0x100015BEC, symSize: 0x18 }
  - { offsetInCU: 0x78EC, offset: 0x71A26, size: 0x8, addend: 0x0, symName: __ZNSt3__117__compressed_pairINS0_IP10RiskTakingNS_10shared_ptrI9CharacterE27__shared_ptr_default_deleteIS4_S1_EEEENS_9allocatorIS1_EEEC2B8ue170006IS8_SA_EEOT_OT0_, symObjAddr: 0x17D4, symBinAddr: 0x100015C04, symSize: 0x44 }
  - { offsetInCU: 0x7944, offset: 0x71A7E, size: 0x8, addend: 0x0, symName: __ZNSt3__122__compressed_pair_elemINS_17__compressed_pairIP10RiskTakingNS_10shared_ptrI9CharacterE27__shared_ptr_default_deleteIS5_S2_EEEELi0ELb0EEC2B8ue170006IS9_vEEOT_, symObjAddr: 0x1818, symBinAddr: 0x100015C48, symSize: 0x24 }
  - { offsetInCU: 0x7986, offset: 0x71AC0, size: 0x8, addend: 0x0, symName: __ZNSt3__122__compressed_pair_elemINS_9allocatorI10RiskTakingEELi1ELb1EEC2B8ue170006IS3_vEEOT_, symObjAddr: 0x183C, symBinAddr: 0x100015C6C, symSize: 0x18 }
  - { offsetInCU: 0x79C8, offset: 0x71B02, size: 0x8, addend: 0x0, symName: __ZNSt3__120__shared_ptr_pointerIP10RiskTakingNS_10shared_ptrI9CharacterE27__shared_ptr_default_deleteIS4_S1_EENS_9allocatorIS1_EEED2Ev, symObjAddr: 0x1854, symBinAddr: 0x100015C84, symSize: 0x2C }
  - { offsetInCU: 0x79F4, offset: 0x71B2E, size: 0x8, addend: 0x0, symName: __ZNSt3__117__compressed_pairINS0_IP10RiskTakingNS_10shared_ptrI9CharacterE27__shared_ptr_default_deleteIS4_S1_EEEENS_9allocatorIS1_EEE5firstB8ue170006Ev, symObjAddr: 0x1880, symBinAddr: 0x100015CB0, symSize: 0x24 }
  - { offsetInCU: 0x7A1A, offset: 0x71B54, size: 0x8, addend: 0x0, symName: __ZNSt3__117__compressed_pairIP10RiskTakingNS_10shared_ptrI9CharacterE27__shared_ptr_default_deleteIS4_S1_EEE6secondB8ue170006Ev, symObjAddr: 0x18A4, symBinAddr: 0x100015CD4, symSize: 0x24 }
  - { offsetInCU: 0x7A40, offset: 0x71B7A, size: 0x8, addend: 0x0, symName: __ZNKSt3__114default_deleteI10RiskTakingEclB8ue170006EPS1_, symObjAddr: 0x18C8, symBinAddr: 0x100015CF8, symSize: 0x4C }
  - { offsetInCU: 0x7A74, offset: 0x71BAE, size: 0x8, addend: 0x0, symName: __ZNSt3__117__compressed_pairIP10RiskTakingNS_10shared_ptrI9CharacterE27__shared_ptr_default_deleteIS4_S1_EEE5firstB8ue170006Ev, symObjAddr: 0x1914, symBinAddr: 0x100015D44, symSize: 0x24 }
  - { offsetInCU: 0x7A9A, offset: 0x71BD4, size: 0x8, addend: 0x0, symName: __ZNSt3__122__compressed_pair_elemINS_17__compressed_pairIP10RiskTakingNS_10shared_ptrI9CharacterE27__shared_ptr_default_deleteIS5_S2_EEEELi0ELb0EE5__getB8ue170006Ev, symObjAddr: 0x1938, symBinAddr: 0x100015D68, symSize: 0x14 }
  - { offsetInCU: 0x7AC0, offset: 0x71BFA, size: 0x8, addend: 0x0, symName: __ZNSt3__122__compressed_pair_elemINS_10shared_ptrI9CharacterE27__shared_ptr_default_deleteIS2_10RiskTakingEELi1ELb1EE5__getB8ue170006Ev, symObjAddr: 0x194C, symBinAddr: 0x100015D7C, symSize: 0x14 }
  - { offsetInCU: 0x7AE6, offset: 0x71C20, size: 0x8, addend: 0x0, symName: __ZNSt3__122__compressed_pair_elemIP10RiskTakingLi0ELb0EE5__getB8ue170006Ev, symObjAddr: 0x1960, symBinAddr: 0x100015D90, symSize: 0x14 }
  - { offsetInCU: 0x7B0C, offset: 0x71C46, size: 0x8, addend: 0x0, symName: __ZNKSt3__117__compressed_pairINS0_IP10RiskTakingNS_10shared_ptrI9CharacterE27__shared_ptr_default_deleteIS4_S1_EEEENS_9allocatorIS1_EEE5firstB8ue170006Ev, symObjAddr: 0x1974, symBinAddr: 0x100015DA4, symSize: 0x24 }
  - { offsetInCU: 0x7B32, offset: 0x71C6C, size: 0x8, addend: 0x0, symName: __ZNKSt3__117__compressed_pairIP10RiskTakingNS_10shared_ptrI9CharacterE27__shared_ptr_default_deleteIS4_S1_EEE6secondB8ue170006Ev, symObjAddr: 0x1998, symBinAddr: 0x100015DC8, symSize: 0x24 }
  - { offsetInCU: 0x7B58, offset: 0x71C92, size: 0x8, addend: 0x0, symName: __ZNKSt3__122__compressed_pair_elemINS_17__compressed_pairIP10RiskTakingNS_10shared_ptrI9CharacterE27__shared_ptr_default_deleteIS5_S2_EEEELi0ELb0EE5__getB8ue170006Ev, symObjAddr: 0x19BC, symBinAddr: 0x100015DEC, symSize: 0x14 }
  - { offsetInCU: 0x7B7E, offset: 0x71CB8, size: 0x8, addend: 0x0, symName: __ZNKSt3__122__compressed_pair_elemINS_10shared_ptrI9CharacterE27__shared_ptr_default_deleteIS2_10RiskTakingEELi1ELb1EE5__getB8ue170006Ev, symObjAddr: 0x19D0, symBinAddr: 0x100015E00, symSize: 0x14 }
  - { offsetInCU: 0x7BA4, offset: 0x71CDE, size: 0x8, addend: 0x0, symName: __ZNSt3__117__compressed_pairINS0_IP10RiskTakingNS_10shared_ptrI9CharacterE27__shared_ptr_default_deleteIS4_S1_EEEENS_9allocatorIS1_EEE6secondB8ue170006Ev, symObjAddr: 0x19E4, symBinAddr: 0x100015E14, symSize: 0x24 }
  - { offsetInCU: 0x7BF2, offset: 0x71D2C, size: 0x8, addend: 0x0, symName: __ZNSt3__19allocatorINS_20__shared_ptr_pointerIP10RiskTakingNS_10shared_ptrI9CharacterE27__shared_ptr_default_deleteIS5_S2_EENS0_IS2_EEEEEC1B8ue170006IS2_EERKNS0_IT_EE, symObjAddr: 0x1A08, symBinAddr: 0x100015E38, symSize: 0x34 }
  - { offsetInCU: 0x7C30, offset: 0x71D6A, size: 0x8, addend: 0x0, symName: __ZNSt3__19allocatorINS_20__shared_ptr_pointerIP10RiskTakingNS_10shared_ptrI9CharacterE27__shared_ptr_default_deleteIS5_S2_EENS0_IS2_EEEEE10deallocateB8ue170006EPSA_m, symObjAddr: 0x1A3C, symBinAddr: 0x100015E6C, symSize: 0x40 }
  - { offsetInCU: 0x7C72, offset: 0x71DAC, size: 0x8, addend: 0x0, symName: __ZNSt3__114pointer_traitsIPNS_20__shared_ptr_pointerIP10RiskTakingNS_10shared_ptrI9CharacterE27__shared_ptr_default_deleteIS5_S2_EENS_9allocatorIS2_EEEEE10pointer_toB8ue170006ERSB_, symObjAddr: 0x1A7C, symBinAddr: 0x100015EAC, symSize: 0x14 }
  - { offsetInCU: 0x7C95, offset: 0x71DCF, size: 0x8, addend: 0x0, symName: __ZNSt3__122__compressed_pair_elemINS_9allocatorI10RiskTakingEELi1ELb1EE5__getB8ue170006Ev, symObjAddr: 0x1A90, symBinAddr: 0x100015EC0, symSize: 0x14 }
  - { offsetInCU: 0x7CBB, offset: 0x71DF5, size: 0x8, addend: 0x0, symName: __ZNSt3__19allocatorINS_20__shared_ptr_pointerIP10RiskTakingNS_10shared_ptrI9CharacterE27__shared_ptr_default_deleteIS5_S2_EENS0_IS2_EEEEEC2B8ue170006IS2_EERKNS0_IT_EE, symObjAddr: 0x1AA4, symBinAddr: 0x100015ED4, symSize: 0x30 }
  - { offsetInCU: 0x7CF9, offset: 0x71E33, size: 0x8, addend: 0x0, symName: __ZNSt3__116__non_trivial_ifILb1ENS_9allocatorINS_20__shared_ptr_pointerIP10RiskTakingNS_10shared_ptrI9CharacterE27__shared_ptr_default_deleteIS6_S3_EENS1_IS3_EEEEEEEC2B8ue170006Ev, symObjAddr: 0x1AD4, symBinAddr: 0x100015F04, symSize: 0x14 }
  - { offsetInCU: 0x7D23, offset: 0x71E5D, size: 0x8, addend: 0x0, symName: __ZNSt3__117__compressed_pairIP10RiskTakingNS_14default_deleteIS1_EEE5firstB8ue170006Ev, symObjAddr: 0x1AE8, symBinAddr: 0x100015F18, symSize: 0x24 }
  - { offsetInCU: 0x7D49, offset: 0x71E83, size: 0x8, addend: 0x0, symName: __ZNSt3__110unique_ptrI10RiskTakingNS_14default_deleteIS1_EEED2B8ue170006Ev, symObjAddr: 0x1B0C, symBinAddr: 0x100015F3C, symSize: 0x30 }
  - { offsetInCU: 0x7D73, offset: 0x71EAD, size: 0x8, addend: 0x0, symName: __ZNSt3__110unique_ptrI10RiskTakingNS_14default_deleteIS1_EEE5resetB8ue170006EPS1_, symObjAddr: 0x1B3C, symBinAddr: 0x100015F6C, symSize: 0x78 }
  - { offsetInCU: 0x7DB7, offset: 0x71EF1, size: 0x8, addend: 0x0, symName: __ZNSt3__117__compressed_pairIP10RiskTakingNS_14default_deleteIS1_EEE6secondB8ue170006Ev, symObjAddr: 0x1BB4, symBinAddr: 0x100015FE4, symSize: 0x24 }
  - { offsetInCU: 0x7DDD, offset: 0x71F17, size: 0x8, addend: 0x0, symName: __ZNSt3__122__compressed_pair_elemINS_14default_deleteI10RiskTakingEELi1ELb1EE5__getB8ue170006Ev, symObjAddr: 0x1BD8, symBinAddr: 0x100016008, symSize: 0x14 }
  - { offsetInCU: 0x3899, offset: 0x75849, size: 0x8, addend: 0x0, symName: __ZNSt3__111make_sharedB8ue170006I6ArcherJEvEENS_10shared_ptrIT_EEDpOT0_, symObjAddr: 0x244, symBinAddr: 0x1000161B4, symSize: 0x38 }
  - { offsetInCU: 0x3AE3, offset: 0x75A93, size: 0x8, addend: 0x0, symName: __ZNSt3__111make_sharedB8ue170006I7WarriorJEvEENS_10shared_ptrIT_EEDpOT0_, symObjAddr: 0x2DC, symBinAddr: 0x10001624C, symSize: 0x38 }
  - { offsetInCU: 0x3D2D, offset: 0x75CDD, size: 0x8, addend: 0x0, symName: __ZNSt3__111make_sharedB8ue170006I8MagicianJEvEENS_10shared_ptrIT_EEDpOT0_, symObjAddr: 0x374, symBinAddr: 0x1000162E4, symSize: 0x38 }
  - { offsetInCU: 0x3F77, offset: 0x75F27, size: 0x8, addend: 0x0, symName: __ZNSt3__115allocate_sharedB8ue170006I6ArcherNS_9allocatorIS1_EEJEvEENS_10shared_ptrIT_EERKT0_DpOT1_, symObjAddr: 0x610, symBinAddr: 0x10001637C, symSize: 0x90 }
  - { offsetInCU: 0x430D, offset: 0x762BD, size: 0x8, addend: 0x0, symName: __ZNSt3__115allocate_sharedB8ue170006I7WarriorNS_9allocatorIS1_EEJEvEENS_10shared_ptrIT_EERKT0_DpOT1_, symObjAddr: 0x12EC, symBinAddr: 0x100016CE0, symSize: 0x90 }
  - { offsetInCU: 0x46A3, offset: 0x76653, size: 0x8, addend: 0x0, symName: __ZNSt3__115allocate_sharedB8ue170006I8MagicianNS_9allocatorIS1_EEJEvEENS_10shared_ptrIT_EERKT0_DpOT1_, symObjAddr: 0x1C50, symBinAddr: 0x100017644, symSize: 0x90 }
  - { offsetInCU: 0x7221, offset: 0x791D1, size: 0x8, addend: 0x0, symName: __ZN3Job9createJobERKNSt3__112basic_stringIcNS0_11char_traitsIcEENS0_9allocatorIcEEEE, symObjAddr: 0x0, symBinAddr: 0x10001601C, symSize: 0x198 }
  - { offsetInCU: 0x7269, offset: 0x79219, size: 0x8, addend: 0x0, symName: __ZNSt3__110shared_ptrI3JobEC1B8ue170006I6ArchervEEONS0_IT_EE, symObjAddr: 0x27C, symBinAddr: 0x1000161EC, symSize: 0x34 }
  - { offsetInCU: 0x72AC, offset: 0x7925C, size: 0x8, addend: 0x0, symName: __ZNSt3__110shared_ptrI6ArcherED1B8ue170006Ev, symObjAddr: 0x2B0, symBinAddr: 0x100016220, symSize: 0x2C }
  - { offsetInCU: 0x72F9, offset: 0x792A9, size: 0x8, addend: 0x0, symName: __ZNSt3__110shared_ptrI3JobEC1B8ue170006I7WarriorvEEONS0_IT_EE, symObjAddr: 0x314, symBinAddr: 0x100016284, symSize: 0x34 }
  - { offsetInCU: 0x733C, offset: 0x792EC, size: 0x8, addend: 0x0, symName: __ZNSt3__110shared_ptrI7WarriorED1B8ue170006Ev, symObjAddr: 0x348, symBinAddr: 0x1000162B8, symSize: 0x2C }
  - { offsetInCU: 0x7389, offset: 0x79339, size: 0x8, addend: 0x0, symName: __ZNSt3__110shared_ptrI3JobEC1B8ue170006I8MagicianvEEONS0_IT_EE, symObjAddr: 0x3AC, symBinAddr: 0x10001631C, symSize: 0x34 }
  - { offsetInCU: 0x73CC, offset: 0x7937C, size: 0x8, addend: 0x0, symName: __ZNSt3__110shared_ptrI8MagicianED1B8ue170006Ev, symObjAddr: 0x3E0, symBinAddr: 0x100016350, symSize: 0x2C }
  - { offsetInCU: 0x73F6, offset: 0x793A6, size: 0x8, addend: 0x0, symName: __ZNSt3__19allocatorI6ArcherEC1B8ue170006Ev, symObjAddr: 0x6A0, symBinAddr: 0x10001640C, symSize: 0x2C }
  - { offsetInCU: 0x746B, offset: 0x7941B, size: 0x8, addend: 0x0, symName: __ZNSt3__118__allocation_guardINS_9allocatorINS_20__shared_ptr_emplaceI6ArcherNS1_IS3_EEEEEEEC1B8ue170006IS4_EET_m, symObjAddr: 0x6CC, symBinAddr: 0x100016438, symSize: 0x34 }
  - { offsetInCU: 0x74BA, offset: 0x7946A, size: 0x8, addend: 0x0, symName: __ZNKSt3__118__allocation_guardINS_9allocatorINS_20__shared_ptr_emplaceI6ArcherNS1_IS3_EEEEEEE5__getB8ue170006Ev, symObjAddr: 0x700, symBinAddr: 0x10001646C, symSize: 0x18 }
  - { offsetInCU: 0x74E0, offset: 0x79490, size: 0x8, addend: 0x0, symName: __ZNSt3__120__shared_ptr_emplaceI6ArcherNS_9allocatorIS1_EEEC1B8ue170006IJEEES3_DpOT_, symObjAddr: 0x718, symBinAddr: 0x100016484, symSize: 0x2C }
  - { offsetInCU: 0x751E, offset: 0x794CE, size: 0x8, addend: 0x0, symName: __ZNSt3__118__allocation_guardINS_9allocatorINS_20__shared_ptr_emplaceI6ArcherNS1_IS3_EEEEEEE13__release_ptrB8ue170006Ev, symObjAddr: 0x744, symBinAddr: 0x1000164B0, symSize: 0x24 }
  - { offsetInCU: 0x7552, offset: 0x79502, size: 0x8, addend: 0x0, symName: __ZNSt3__110shared_ptrI6ArcherE27__create_with_control_blockB8ue170006IS1_NS_20__shared_ptr_emplaceIS1_NS_9allocatorIS1_EEEEEES2_PT_PT0_, symObjAddr: 0x768, symBinAddr: 0x1000164D4, symSize: 0xA4 }
  - { offsetInCU: 0x75A7, offset: 0x79557, size: 0x8, addend: 0x0, symName: __ZNSt3__120__shared_ptr_emplaceI6ArcherNS_9allocatorIS1_EEE10__get_elemB8ue170006Ev, symObjAddr: 0x80C, symBinAddr: 0x100016578, symSize: 0x28 }
  - { offsetInCU: 0x75CD, offset: 0x7957D, size: 0x8, addend: 0x0, symName: __ZNSt3__118__allocation_guardINS_9allocatorINS_20__shared_ptr_emplaceI6ArcherNS1_IS3_EEEEEEED1B8ue170006Ev, symObjAddr: 0x834, symBinAddr: 0x1000165A0, symSize: 0x2C }
  - { offsetInCU: 0x75F7, offset: 0x795A7, size: 0x8, addend: 0x0, symName: __ZNSt3__118__allocation_guardINS_9allocatorINS_20__shared_ptr_emplaceI6ArcherNS1_IS3_EEEEEEEC2B8ue170006IS4_EET_m, symObjAddr: 0x860, symBinAddr: 0x1000165CC, symSize: 0x50 }
  - { offsetInCU: 0x7646, offset: 0x795F6, size: 0x8, addend: 0x0, symName: __ZNSt3__19allocatorINS_20__shared_ptr_emplaceI6ArcherNS0_IS2_EEEEEC1B8ue170006IS2_EERKNS0_IT_EE, symObjAddr: 0x8B0, symBinAddr: 0x10001661C, symSize: 0x34 }
  - { offsetInCU: 0x7684, offset: 0x79634, size: 0x8, addend: 0x0, symName: __ZNSt3__116allocator_traitsINS_9allocatorINS_20__shared_ptr_emplaceI6ArcherNS1_IS3_EEEEEEE8allocateB8ue170006ERS6_m, symObjAddr: 0x8E4, symBinAddr: 0x100016650, symSize: 0x2C }
  - { offsetInCU: 0x76B7, offset: 0x79667, size: 0x8, addend: 0x0, symName: __ZNSt3__19allocatorINS_20__shared_ptr_emplaceI6ArcherNS0_IS2_EEEEEC2B8ue170006IS2_EERKNS0_IT_EE, symObjAddr: 0x910, symBinAddr: 0x10001667C, symSize: 0x30 }
  - { offsetInCU: 0x76F5, offset: 0x796A5, size: 0x8, addend: 0x0, symName: __ZNSt3__116__non_trivial_ifILb1ENS_9allocatorINS_20__shared_ptr_emplaceI6ArcherNS1_IS3_EEEEEEEC2B8ue170006Ev, symObjAddr: 0x940, symBinAddr: 0x1000166AC, symSize: 0x14 }
  - { offsetInCU: 0x771F, offset: 0x796CF, size: 0x8, addend: 0x0, symName: __ZNSt3__19allocatorINS_20__shared_ptr_emplaceI6ArcherNS0_IS2_EEEEE8allocateB8ue170006Em, symObjAddr: 0x954, symBinAddr: 0x1000166C0, symSize: 0x58 }
  - { offsetInCU: 0x775D, offset: 0x7970D, size: 0x8, addend: 0x0, symName: __ZNSt3__116allocator_traitsINS_9allocatorINS_20__shared_ptr_emplaceI6ArcherNS1_IS3_EEEEEEE8max_sizeB8ue170006IS6_vEEmRKS6_, symObjAddr: 0x9AC, symBinAddr: 0x100016718, symSize: 0x24 }
  - { offsetInCU: 0x778B, offset: 0x7973B, size: 0x8, addend: 0x0, symName: __ZNKSt3__19allocatorINS_20__shared_ptr_emplaceI6ArcherNS0_IS2_EEEEE8max_sizeB8ue170006Ev, symObjAddr: 0xA64, symBinAddr: 0x10001673C, symSize: 0x14 }
  - { offsetInCU: 0x77B1, offset: 0x79761, size: 0x8, addend: 0x0, symName: __ZNSt3__120__shared_ptr_emplaceI6ArcherNS_9allocatorIS1_EEEC2B8ue170006IJEEES3_DpOT_, symObjAddr: 0xAE8, symBinAddr: 0x100016750, symSize: 0xB0 }
  - { offsetInCU: 0x77EF, offset: 0x7979F, size: 0x8, addend: 0x0, symName: __ZNSt3__120__shared_ptr_emplaceI6ArcherNS_9allocatorIS1_EEE8_StorageC1B8ue170006EOS3_, symObjAddr: 0xBEC, symBinAddr: 0x100016800, symSize: 0x34 }
  - { offsetInCU: 0x7828, offset: 0x797D8, size: 0x8, addend: 0x0, symName: __ZNSt3__120__shared_ptr_emplaceI6ArcherNS_9allocatorIS1_EEE8_StorageD1B8ue170006Ev, symObjAddr: 0xC20, symBinAddr: 0x100016834, symSize: 0x2C }
  - { offsetInCU: 0x7852, offset: 0x79802, size: 0x8, addend: 0x0, symName: __ZNSt3__120__shared_ptr_emplaceI6ArcherNS_9allocatorIS1_EEED1Ev, symObjAddr: 0xC4C, symBinAddr: 0x100016860, symSize: 0x2C }
  - { offsetInCU: 0x787F, offset: 0x7982F, size: 0x8, addend: 0x0, symName: __ZNSt3__120__shared_ptr_emplaceI6ArcherNS_9allocatorIS1_EEED0Ev, symObjAddr: 0xC78, symBinAddr: 0x10001688C, symSize: 0x30 }
  - { offsetInCU: 0x78AC, offset: 0x7985C, size: 0x8, addend: 0x0, symName: __ZNSt3__120__shared_ptr_emplaceI6ArcherNS_9allocatorIS1_EEE16__on_zero_sharedEv, symObjAddr: 0xCA8, symBinAddr: 0x1000168BC, symSize: 0x30 }
  - { offsetInCU: 0x78D2, offset: 0x79882, size: 0x8, addend: 0x0, symName: __ZNSt3__120__shared_ptr_emplaceI6ArcherNS_9allocatorIS1_EEE21__on_zero_shared_weakEv, symObjAddr: 0xCD8, symBinAddr: 0x1000168EC, symSize: 0x5C }
  - { offsetInCU: 0x7913, offset: 0x798C3, size: 0x8, addend: 0x0, symName: __ZNSt3__120__shared_ptr_emplaceI6ArcherNS_9allocatorIS1_EEE8_StorageC2B8ue170006EOS3_, symObjAddr: 0xD64, symBinAddr: 0x100016948, symSize: 0x30 }
  - { offsetInCU: 0x794C, offset: 0x798FC, size: 0x8, addend: 0x0, symName: __ZNSt3__120__shared_ptr_emplaceI6ArcherNS_9allocatorIS1_EEE8_Storage11__get_allocB8ue170006Ev, symObjAddr: 0xD94, symBinAddr: 0x100016978, symSize: 0x3C }
  - { offsetInCU: 0x799F, offset: 0x7994F, size: 0x8, addend: 0x0, symName: __ZNSt3__117__compressed_pairINS_9allocatorI6ArcherEES2_E16__get_first_baseB8ue170006EPS4_, symObjAddr: 0xDD0, symBinAddr: 0x1000169B4, symSize: 0x14 }
  - { offsetInCU: 0x79C2, offset: 0x79972, size: 0x8, addend: 0x0, symName: __ZNSt3__120__shared_ptr_emplaceI6ArcherNS_9allocatorIS1_EEE8_StorageD2B8ue170006Ev, symObjAddr: 0xDE4, symBinAddr: 0x1000169C8, symSize: 0x2C }
  - { offsetInCU: 0x79EC, offset: 0x7999C, size: 0x8, addend: 0x0, symName: __ZNSt3__120__shared_ptr_emplaceI6ArcherNS_9allocatorIS1_EEED2Ev, symObjAddr: 0xE10, symBinAddr: 0x1000169F4, symSize: 0x48 }
  - { offsetInCU: 0x7A19, offset: 0x799C9, size: 0x8, addend: 0x0, symName: __ZNSt3__120__shared_ptr_emplaceI6ArcherNS_9allocatorIS1_EEE11__get_allocB8ue170006Ev, symObjAddr: 0xE58, symBinAddr: 0x100016A3C, symSize: 0x28 }
  - { offsetInCU: 0x7A3F, offset: 0x799EF, size: 0x8, addend: 0x0, symName: __ZNSt3__116allocator_traitsINS_9allocatorINS_20__shared_ptr_emplaceI6ArcherNS1_IS3_EEEEEEE10deallocateB8ue170006ERS6_PS5_m, symObjAddr: 0xE80, symBinAddr: 0x100016A64, symSize: 0x34 }
  - { offsetInCU: 0x7A81, offset: 0x79A31, size: 0x8, addend: 0x0, symName: __ZNSt3__114pointer_traitsIPNS_20__shared_ptr_emplaceI6ArcherNS_9allocatorIS2_EEEEE10pointer_toB8ue170006ERS5_, symObjAddr: 0xEB4, symBinAddr: 0x100016A98, symSize: 0x14 }
  - { offsetInCU: 0x7AA4, offset: 0x79A54, size: 0x8, addend: 0x0, symName: __ZNSt3__19allocatorINS_20__shared_ptr_emplaceI6ArcherNS0_IS2_EEEEE10deallocateB8ue170006EPS4_m, symObjAddr: 0xEC8, symBinAddr: 0x100016AAC, symSize: 0x40 }
  - { offsetInCU: 0x7AE6, offset: 0x79A96, size: 0x8, addend: 0x0, symName: __ZNSt3__110shared_ptrI6ArcherEC1B8ue170006Ev, symObjAddr: 0x1010, symBinAddr: 0x100016AEC, symSize: 0x2C }
  - { offsetInCU: 0x7B10, offset: 0x79AC0, size: 0x8, addend: 0x0, symName: __ZNSt3__110shared_ptrI6ArcherE18__enable_weak_thisB8ue170006Ez, symObjAddr: 0x103C, symBinAddr: 0x100016B18, symSize: 0x10 }
  - { offsetInCU: 0x7B37, offset: 0x79AE7, size: 0x8, addend: 0x0, symName: __ZNSt3__110shared_ptrI6ArcherEC2B8ue170006Ev, symObjAddr: 0x104C, symBinAddr: 0x100016B28, symSize: 0x1C }
  - { offsetInCU: 0x7B61, offset: 0x79B11, size: 0x8, addend: 0x0, symName: __ZNSt3__120__shared_ptr_emplaceI6ArcherNS_9allocatorIS1_EEE8_Storage10__get_elemB8ue170006Ev, symObjAddr: 0x1068, symBinAddr: 0x100016B44, symSize: 0x3C }
  - { offsetInCU: 0x7BB4, offset: 0x79B64, size: 0x8, addend: 0x0, symName: __ZNSt3__117__compressed_pairINS_9allocatorI6ArcherEES2_E17__get_second_baseB8ue170006EPS4_, symObjAddr: 0x10A4, symBinAddr: 0x100016B80, symSize: 0x14 }
  - { offsetInCU: 0x7BD7, offset: 0x79B87, size: 0x8, addend: 0x0, symName: __ZNSt3__118__allocation_guardINS_9allocatorINS_20__shared_ptr_emplaceI6ArcherNS1_IS3_EEEEEEED2B8ue170006Ev, symObjAddr: 0x10B8, symBinAddr: 0x100016B94, symSize: 0x2C }
  - { offsetInCU: 0x7C01, offset: 0x79BB1, size: 0x8, addend: 0x0, symName: __ZNSt3__118__allocation_guardINS_9allocatorINS_20__shared_ptr_emplaceI6ArcherNS1_IS3_EEEEEEE9__destroyB8ue170006Ev, symObjAddr: 0x10E4, symBinAddr: 0x100016BC0, symSize: 0x4C }
  - { offsetInCU: 0x7C27, offset: 0x79BD7, size: 0x8, addend: 0x0, symName: __ZNSt3__19allocatorI6ArcherEC2B8ue170006Ev, symObjAddr: 0x1130, symBinAddr: 0x100016C0C, symSize: 0x2C }
  - { offsetInCU: 0x7C51, offset: 0x79C01, size: 0x8, addend: 0x0, symName: __ZNSt3__116__non_trivial_ifILb1ENS_9allocatorI6ArcherEEEC2B8ue170006Ev, symObjAddr: 0x115C, symBinAddr: 0x100016C38, symSize: 0x14 }
  - { offsetInCU: 0x7C7B, offset: 0x79C2B, size: 0x8, addend: 0x0, symName: __ZNSt3__110shared_ptrI6ArcherED2B8ue170006Ev, symObjAddr: 0x1170, symBinAddr: 0x100016C4C, symSize: 0x54 }
  - { offsetInCU: 0x7CA5, offset: 0x79C55, size: 0x8, addend: 0x0, symName: __ZNSt3__110shared_ptrI3JobEC2B8ue170006I6ArchervEEONS0_IT_EE, symObjAddr: 0x12AC, symBinAddr: 0x100016CA0, symSize: 0x40 }
  - { offsetInCU: 0x7CE8, offset: 0x79C98, size: 0x8, addend: 0x0, symName: __ZNSt3__19allocatorI7WarriorEC1B8ue170006Ev, symObjAddr: 0x137C, symBinAddr: 0x100016D70, symSize: 0x2C }
  - { offsetInCU: 0x7D5D, offset: 0x79D0D, size: 0x8, addend: 0x0, symName: __ZNSt3__118__allocation_guardINS_9allocatorINS_20__shared_ptr_emplaceI7WarriorNS1_IS3_EEEEEEEC1B8ue170006IS4_EET_m, symObjAddr: 0x13A8, symBinAddr: 0x100016D9C, symSize: 0x34 }
  - { offsetInCU: 0x7DAC, offset: 0x79D5C, size: 0x8, addend: 0x0, symName: __ZNKSt3__118__allocation_guardINS_9allocatorINS_20__shared_ptr_emplaceI7WarriorNS1_IS3_EEEEEEE5__getB8ue170006Ev, symObjAddr: 0x13DC, symBinAddr: 0x100016DD0, symSize: 0x18 }
  - { offsetInCU: 0x7DD2, offset: 0x79D82, size: 0x8, addend: 0x0, symName: __ZNSt3__120__shared_ptr_emplaceI7WarriorNS_9allocatorIS1_EEEC1B8ue170006IJEEES3_DpOT_, symObjAddr: 0x13F4, symBinAddr: 0x100016DE8, symSize: 0x2C }
  - { offsetInCU: 0x7E10, offset: 0x79DC0, size: 0x8, addend: 0x0, symName: __ZNSt3__118__allocation_guardINS_9allocatorINS_20__shared_ptr_emplaceI7WarriorNS1_IS3_EEEEEEE13__release_ptrB8ue170006Ev, symObjAddr: 0x1420, symBinAddr: 0x100016E14, symSize: 0x24 }
  - { offsetInCU: 0x7E44, offset: 0x79DF4, size: 0x8, addend: 0x0, symName: __ZNSt3__110shared_ptrI7WarriorE27__create_with_control_blockB8ue170006IS1_NS_20__shared_ptr_emplaceIS1_NS_9allocatorIS1_EEEEEES2_PT_PT0_, symObjAddr: 0x1444, symBinAddr: 0x100016E38, symSize: 0xA4 }
  - { offsetInCU: 0x7E99, offset: 0x79E49, size: 0x8, addend: 0x0, symName: __ZNSt3__120__shared_ptr_emplaceI7WarriorNS_9allocatorIS1_EEE10__get_elemB8ue170006Ev, symObjAddr: 0x14E8, symBinAddr: 0x100016EDC, symSize: 0x28 }
  - { offsetInCU: 0x7EBF, offset: 0x79E6F, size: 0x8, addend: 0x0, symName: __ZNSt3__118__allocation_guardINS_9allocatorINS_20__shared_ptr_emplaceI7WarriorNS1_IS3_EEEEEEED1B8ue170006Ev, symObjAddr: 0x1510, symBinAddr: 0x100016F04, symSize: 0x2C }
  - { offsetInCU: 0x7EE9, offset: 0x79E99, size: 0x8, addend: 0x0, symName: __ZNSt3__118__allocation_guardINS_9allocatorINS_20__shared_ptr_emplaceI7WarriorNS1_IS3_EEEEEEEC2B8ue170006IS4_EET_m, symObjAddr: 0x153C, symBinAddr: 0x100016F30, symSize: 0x50 }
  - { offsetInCU: 0x7F38, offset: 0x79EE8, size: 0x8, addend: 0x0, symName: __ZNSt3__19allocatorINS_20__shared_ptr_emplaceI7WarriorNS0_IS2_EEEEEC1B8ue170006IS2_EERKNS0_IT_EE, symObjAddr: 0x158C, symBinAddr: 0x100016F80, symSize: 0x34 }
  - { offsetInCU: 0x7F76, offset: 0x79F26, size: 0x8, addend: 0x0, symName: __ZNSt3__116allocator_traitsINS_9allocatorINS_20__shared_ptr_emplaceI7WarriorNS1_IS3_EEEEEEE8allocateB8ue170006ERS6_m, symObjAddr: 0x15C0, symBinAddr: 0x100016FB4, symSize: 0x2C }
  - { offsetInCU: 0x7FA9, offset: 0x79F59, size: 0x8, addend: 0x0, symName: __ZNSt3__19allocatorINS_20__shared_ptr_emplaceI7WarriorNS0_IS2_EEEEEC2B8ue170006IS2_EERKNS0_IT_EE, symObjAddr: 0x15EC, symBinAddr: 0x100016FE0, symSize: 0x30 }
  - { offsetInCU: 0x7FE7, offset: 0x79F97, size: 0x8, addend: 0x0, symName: __ZNSt3__116__non_trivial_ifILb1ENS_9allocatorINS_20__shared_ptr_emplaceI7WarriorNS1_IS3_EEEEEEEC2B8ue170006Ev, symObjAddr: 0x161C, symBinAddr: 0x100017010, symSize: 0x14 }
  - { offsetInCU: 0x8011, offset: 0x79FC1, size: 0x8, addend: 0x0, symName: __ZNSt3__19allocatorINS_20__shared_ptr_emplaceI7WarriorNS0_IS2_EEEEE8allocateB8ue170006Em, symObjAddr: 0x1630, symBinAddr: 0x100017024, symSize: 0x58 }
  - { offsetInCU: 0x804F, offset: 0x79FFF, size: 0x8, addend: 0x0, symName: __ZNSt3__116allocator_traitsINS_9allocatorINS_20__shared_ptr_emplaceI7WarriorNS1_IS3_EEEEEEE8max_sizeB8ue170006IS6_vEEmRKS6_, symObjAddr: 0x1688, symBinAddr: 0x10001707C, symSize: 0x24 }
  - { offsetInCU: 0x807D, offset: 0x7A02D, size: 0x8, addend: 0x0, symName: __ZNKSt3__19allocatorINS_20__shared_ptr_emplaceI7WarriorNS0_IS2_EEEEE8max_sizeB8ue170006Ev, symObjAddr: 0x16AC, symBinAddr: 0x1000170A0, symSize: 0x14 }
  - { offsetInCU: 0x80A3, offset: 0x7A053, size: 0x8, addend: 0x0, symName: __ZNSt3__120__shared_ptr_emplaceI7WarriorNS_9allocatorIS1_EEEC2B8ue170006IJEEES3_DpOT_, symObjAddr: 0x16C0, symBinAddr: 0x1000170B4, symSize: 0xB0 }
  - { offsetInCU: 0x80E1, offset: 0x7A091, size: 0x8, addend: 0x0, symName: __ZNSt3__120__shared_ptr_emplaceI7WarriorNS_9allocatorIS1_EEE8_StorageC1B8ue170006EOS3_, symObjAddr: 0x1770, symBinAddr: 0x100017164, symSize: 0x34 }
  - { offsetInCU: 0x811A, offset: 0x7A0CA, size: 0x8, addend: 0x0, symName: __ZNSt3__120__shared_ptr_emplaceI7WarriorNS_9allocatorIS1_EEE8_StorageD1B8ue170006Ev, symObjAddr: 0x17A4, symBinAddr: 0x100017198, symSize: 0x2C }
  - { offsetInCU: 0x8144, offset: 0x7A0F4, size: 0x8, addend: 0x0, symName: __ZNSt3__120__shared_ptr_emplaceI7WarriorNS_9allocatorIS1_EEED1Ev, symObjAddr: 0x17D0, symBinAddr: 0x1000171C4, symSize: 0x2C }
  - { offsetInCU: 0x8171, offset: 0x7A121, size: 0x8, addend: 0x0, symName: __ZNSt3__120__shared_ptr_emplaceI7WarriorNS_9allocatorIS1_EEED0Ev, symObjAddr: 0x17FC, symBinAddr: 0x1000171F0, symSize: 0x30 }
  - { offsetInCU: 0x819E, offset: 0x7A14E, size: 0x8, addend: 0x0, symName: __ZNSt3__120__shared_ptr_emplaceI7WarriorNS_9allocatorIS1_EEE16__on_zero_sharedEv, symObjAddr: 0x182C, symBinAddr: 0x100017220, symSize: 0x30 }
  - { offsetInCU: 0x81C4, offset: 0x7A174, size: 0x8, addend: 0x0, symName: __ZNSt3__120__shared_ptr_emplaceI7WarriorNS_9allocatorIS1_EEE21__on_zero_shared_weakEv, symObjAddr: 0x185C, symBinAddr: 0x100017250, symSize: 0x5C }
  - { offsetInCU: 0x8205, offset: 0x7A1B5, size: 0x8, addend: 0x0, symName: __ZNSt3__120__shared_ptr_emplaceI7WarriorNS_9allocatorIS1_EEE8_StorageC2B8ue170006EOS3_, symObjAddr: 0x18B8, symBinAddr: 0x1000172AC, symSize: 0x30 }
  - { offsetInCU: 0x823E, offset: 0x7A1EE, size: 0x8, addend: 0x0, symName: __ZNSt3__120__shared_ptr_emplaceI7WarriorNS_9allocatorIS1_EEE8_Storage11__get_allocB8ue170006Ev, symObjAddr: 0x18E8, symBinAddr: 0x1000172DC, symSize: 0x3C }
  - { offsetInCU: 0x8291, offset: 0x7A241, size: 0x8, addend: 0x0, symName: __ZNSt3__117__compressed_pairINS_9allocatorI7WarriorEES2_E16__get_first_baseB8ue170006EPS4_, symObjAddr: 0x1924, symBinAddr: 0x100017318, symSize: 0x14 }
  - { offsetInCU: 0x82B4, offset: 0x7A264, size: 0x8, addend: 0x0, symName: __ZNSt3__120__shared_ptr_emplaceI7WarriorNS_9allocatorIS1_EEE8_StorageD2B8ue170006Ev, symObjAddr: 0x1938, symBinAddr: 0x10001732C, symSize: 0x2C }
  - { offsetInCU: 0x82DE, offset: 0x7A28E, size: 0x8, addend: 0x0, symName: __ZNSt3__120__shared_ptr_emplaceI7WarriorNS_9allocatorIS1_EEED2Ev, symObjAddr: 0x1964, symBinAddr: 0x100017358, symSize: 0x48 }
  - { offsetInCU: 0x830B, offset: 0x7A2BB, size: 0x8, addend: 0x0, symName: __ZNSt3__120__shared_ptr_emplaceI7WarriorNS_9allocatorIS1_EEE11__get_allocB8ue170006Ev, symObjAddr: 0x19AC, symBinAddr: 0x1000173A0, symSize: 0x28 }
  - { offsetInCU: 0x8331, offset: 0x7A2E1, size: 0x8, addend: 0x0, symName: __ZNSt3__116allocator_traitsINS_9allocatorINS_20__shared_ptr_emplaceI7WarriorNS1_IS3_EEEEEEE10deallocateB8ue170006ERS6_PS5_m, symObjAddr: 0x19D4, symBinAddr: 0x1000173C8, symSize: 0x34 }
  - { offsetInCU: 0x8373, offset: 0x7A323, size: 0x8, addend: 0x0, symName: __ZNSt3__114pointer_traitsIPNS_20__shared_ptr_emplaceI7WarriorNS_9allocatorIS2_EEEEE10pointer_toB8ue170006ERS5_, symObjAddr: 0x1A08, symBinAddr: 0x1000173FC, symSize: 0x14 }
  - { offsetInCU: 0x8396, offset: 0x7A346, size: 0x8, addend: 0x0, symName: __ZNSt3__19allocatorINS_20__shared_ptr_emplaceI7WarriorNS0_IS2_EEEEE10deallocateB8ue170006EPS4_m, symObjAddr: 0x1A1C, symBinAddr: 0x100017410, symSize: 0x40 }
  - { offsetInCU: 0x83D8, offset: 0x7A388, size: 0x8, addend: 0x0, symName: __ZNSt3__110shared_ptrI7WarriorEC1B8ue170006Ev, symObjAddr: 0x1A5C, symBinAddr: 0x100017450, symSize: 0x2C }
  - { offsetInCU: 0x8402, offset: 0x7A3B2, size: 0x8, addend: 0x0, symName: __ZNSt3__110shared_ptrI7WarriorE18__enable_weak_thisB8ue170006Ez, symObjAddr: 0x1A88, symBinAddr: 0x10001747C, symSize: 0x10 }
  - { offsetInCU: 0x8429, offset: 0x7A3D9, size: 0x8, addend: 0x0, symName: __ZNSt3__110shared_ptrI7WarriorEC2B8ue170006Ev, symObjAddr: 0x1A98, symBinAddr: 0x10001748C, symSize: 0x1C }
  - { offsetInCU: 0x8453, offset: 0x7A403, size: 0x8, addend: 0x0, symName: __ZNSt3__120__shared_ptr_emplaceI7WarriorNS_9allocatorIS1_EEE8_Storage10__get_elemB8ue170006Ev, symObjAddr: 0x1AB4, symBinAddr: 0x1000174A8, symSize: 0x3C }
  - { offsetInCU: 0x84A6, offset: 0x7A456, size: 0x8, addend: 0x0, symName: __ZNSt3__117__compressed_pairINS_9allocatorI7WarriorEES2_E17__get_second_baseB8ue170006EPS4_, symObjAddr: 0x1AF0, symBinAddr: 0x1000174E4, symSize: 0x14 }
  - { offsetInCU: 0x84C9, offset: 0x7A479, size: 0x8, addend: 0x0, symName: __ZNSt3__118__allocation_guardINS_9allocatorINS_20__shared_ptr_emplaceI7WarriorNS1_IS3_EEEEEEED2B8ue170006Ev, symObjAddr: 0x1B04, symBinAddr: 0x1000174F8, symSize: 0x2C }
  - { offsetInCU: 0x84F3, offset: 0x7A4A3, size: 0x8, addend: 0x0, symName: __ZNSt3__118__allocation_guardINS_9allocatorINS_20__shared_ptr_emplaceI7WarriorNS1_IS3_EEEEEEE9__destroyB8ue170006Ev, symObjAddr: 0x1B30, symBinAddr: 0x100017524, symSize: 0x4C }
  - { offsetInCU: 0x8519, offset: 0x7A4C9, size: 0x8, addend: 0x0, symName: __ZNSt3__19allocatorI7WarriorEC2B8ue170006Ev, symObjAddr: 0x1B7C, symBinAddr: 0x100017570, symSize: 0x2C }
  - { offsetInCU: 0x8543, offset: 0x7A4F3, size: 0x8, addend: 0x0, symName: __ZNSt3__116__non_trivial_ifILb1ENS_9allocatorI7WarriorEEEC2B8ue170006Ev, symObjAddr: 0x1BA8, symBinAddr: 0x10001759C, symSize: 0x14 }
  - { offsetInCU: 0x856D, offset: 0x7A51D, size: 0x8, addend: 0x0, symName: __ZNSt3__110shared_ptrI7WarriorED2B8ue170006Ev, symObjAddr: 0x1BBC, symBinAddr: 0x1000175B0, symSize: 0x54 }
  - { offsetInCU: 0x8597, offset: 0x7A547, size: 0x8, addend: 0x0, symName: __ZNSt3__110shared_ptrI3JobEC2B8ue170006I7WarriorvEEONS0_IT_EE, symObjAddr: 0x1C10, symBinAddr: 0x100017604, symSize: 0x40 }
  - { offsetInCU: 0x85DA, offset: 0x7A58A, size: 0x8, addend: 0x0, symName: __ZNSt3__19allocatorI8MagicianEC1B8ue170006Ev, symObjAddr: 0x1CE0, symBinAddr: 0x1000176D4, symSize: 0x2C }
  - { offsetInCU: 0x864F, offset: 0x7A5FF, size: 0x8, addend: 0x0, symName: __ZNSt3__118__allocation_guardINS_9allocatorINS_20__shared_ptr_emplaceI8MagicianNS1_IS3_EEEEEEEC1B8ue170006IS4_EET_m, symObjAddr: 0x1D0C, symBinAddr: 0x100017700, symSize: 0x34 }
  - { offsetInCU: 0x869E, offset: 0x7A64E, size: 0x8, addend: 0x0, symName: __ZNKSt3__118__allocation_guardINS_9allocatorINS_20__shared_ptr_emplaceI8MagicianNS1_IS3_EEEEEEE5__getB8ue170006Ev, symObjAddr: 0x1D40, symBinAddr: 0x100017734, symSize: 0x18 }
  - { offsetInCU: 0x86C4, offset: 0x7A674, size: 0x8, addend: 0x0, symName: __ZNSt3__120__shared_ptr_emplaceI8MagicianNS_9allocatorIS1_EEEC1B8ue170006IJEEES3_DpOT_, symObjAddr: 0x1D58, symBinAddr: 0x10001774C, symSize: 0x2C }
  - { offsetInCU: 0x8702, offset: 0x7A6B2, size: 0x8, addend: 0x0, symName: __ZNSt3__118__allocation_guardINS_9allocatorINS_20__shared_ptr_emplaceI8MagicianNS1_IS3_EEEEEEE13__release_ptrB8ue170006Ev, symObjAddr: 0x1D84, symBinAddr: 0x100017778, symSize: 0x24 }
  - { offsetInCU: 0x8736, offset: 0x7A6E6, size: 0x8, addend: 0x0, symName: __ZNSt3__110shared_ptrI8MagicianE27__create_with_control_blockB8ue170006IS1_NS_20__shared_ptr_emplaceIS1_NS_9allocatorIS1_EEEEEES2_PT_PT0_, symObjAddr: 0x1DA8, symBinAddr: 0x10001779C, symSize: 0xA4 }
  - { offsetInCU: 0x878B, offset: 0x7A73B, size: 0x8, addend: 0x0, symName: __ZNSt3__120__shared_ptr_emplaceI8MagicianNS_9allocatorIS1_EEE10__get_elemB8ue170006Ev, symObjAddr: 0x1E4C, symBinAddr: 0x100017840, symSize: 0x28 }
  - { offsetInCU: 0x87B1, offset: 0x7A761, size: 0x8, addend: 0x0, symName: __ZNSt3__118__allocation_guardINS_9allocatorINS_20__shared_ptr_emplaceI8MagicianNS1_IS3_EEEEEEED1B8ue170006Ev, symObjAddr: 0x1E74, symBinAddr: 0x100017868, symSize: 0x2C }
  - { offsetInCU: 0x87DB, offset: 0x7A78B, size: 0x8, addend: 0x0, symName: __ZNSt3__118__allocation_guardINS_9allocatorINS_20__shared_ptr_emplaceI8MagicianNS1_IS3_EEEEEEEC2B8ue170006IS4_EET_m, symObjAddr: 0x1EA0, symBinAddr: 0x100017894, symSize: 0x50 }
  - { offsetInCU: 0x882A, offset: 0x7A7DA, size: 0x8, addend: 0x0, symName: __ZNSt3__19allocatorINS_20__shared_ptr_emplaceI8MagicianNS0_IS2_EEEEEC1B8ue170006IS2_EERKNS0_IT_EE, symObjAddr: 0x1EF0, symBinAddr: 0x1000178E4, symSize: 0x34 }
  - { offsetInCU: 0x8868, offset: 0x7A818, size: 0x8, addend: 0x0, symName: __ZNSt3__116allocator_traitsINS_9allocatorINS_20__shared_ptr_emplaceI8MagicianNS1_IS3_EEEEEEE8allocateB8ue170006ERS6_m, symObjAddr: 0x1F24, symBinAddr: 0x100017918, symSize: 0x2C }
  - { offsetInCU: 0x889B, offset: 0x7A84B, size: 0x8, addend: 0x0, symName: __ZNSt3__19allocatorINS_20__shared_ptr_emplaceI8MagicianNS0_IS2_EEEEEC2B8ue170006IS2_EERKNS0_IT_EE, symObjAddr: 0x1F50, symBinAddr: 0x100017944, symSize: 0x30 }
  - { offsetInCU: 0x88D9, offset: 0x7A889, size: 0x8, addend: 0x0, symName: __ZNSt3__116__non_trivial_ifILb1ENS_9allocatorINS_20__shared_ptr_emplaceI8MagicianNS1_IS3_EEEEEEEC2B8ue170006Ev, symObjAddr: 0x1F80, symBinAddr: 0x100017974, symSize: 0x14 }
  - { offsetInCU: 0x8903, offset: 0x7A8B3, size: 0x8, addend: 0x0, symName: __ZNSt3__19allocatorINS_20__shared_ptr_emplaceI8MagicianNS0_IS2_EEEEE8allocateB8ue170006Em, symObjAddr: 0x1F94, symBinAddr: 0x100017988, symSize: 0x58 }
  - { offsetInCU: 0x8941, offset: 0x7A8F1, size: 0x8, addend: 0x0, symName: __ZNSt3__116allocator_traitsINS_9allocatorINS_20__shared_ptr_emplaceI8MagicianNS1_IS3_EEEEEEE8max_sizeB8ue170006IS6_vEEmRKS6_, symObjAddr: 0x1FEC, symBinAddr: 0x1000179E0, symSize: 0x24 }
  - { offsetInCU: 0x896F, offset: 0x7A91F, size: 0x8, addend: 0x0, symName: __ZNKSt3__19allocatorINS_20__shared_ptr_emplaceI8MagicianNS0_IS2_EEEEE8max_sizeB8ue170006Ev, symObjAddr: 0x2010, symBinAddr: 0x100017A04, symSize: 0x14 }
  - { offsetInCU: 0x8995, offset: 0x7A945, size: 0x8, addend: 0x0, symName: __ZNSt3__120__shared_ptr_emplaceI8MagicianNS_9allocatorIS1_EEEC2B8ue170006IJEEES3_DpOT_, symObjAddr: 0x2024, symBinAddr: 0x100017A18, symSize: 0xB0 }
  - { offsetInCU: 0x89D3, offset: 0x7A983, size: 0x8, addend: 0x0, symName: __ZNSt3__120__shared_ptr_emplaceI8MagicianNS_9allocatorIS1_EEE8_StorageC1B8ue170006EOS3_, symObjAddr: 0x20D4, symBinAddr: 0x100017AC8, symSize: 0x34 }
  - { offsetInCU: 0x8A0C, offset: 0x7A9BC, size: 0x8, addend: 0x0, symName: __ZNSt3__120__shared_ptr_emplaceI8MagicianNS_9allocatorIS1_EEE8_StorageD1B8ue170006Ev, symObjAddr: 0x2108, symBinAddr: 0x100017AFC, symSize: 0x2C }
  - { offsetInCU: 0x8A36, offset: 0x7A9E6, size: 0x8, addend: 0x0, symName: __ZNSt3__120__shared_ptr_emplaceI8MagicianNS_9allocatorIS1_EEED1Ev, symObjAddr: 0x2134, symBinAddr: 0x100017B28, symSize: 0x2C }
  - { offsetInCU: 0x8A63, offset: 0x7AA13, size: 0x8, addend: 0x0, symName: __ZNSt3__120__shared_ptr_emplaceI8MagicianNS_9allocatorIS1_EEED0Ev, symObjAddr: 0x2160, symBinAddr: 0x100017B54, symSize: 0x30 }
  - { offsetInCU: 0x8A90, offset: 0x7AA40, size: 0x8, addend: 0x0, symName: __ZNSt3__120__shared_ptr_emplaceI8MagicianNS_9allocatorIS1_EEE16__on_zero_sharedEv, symObjAddr: 0x2190, symBinAddr: 0x100017B84, symSize: 0x30 }
  - { offsetInCU: 0x8AB6, offset: 0x7AA66, size: 0x8, addend: 0x0, symName: __ZNSt3__120__shared_ptr_emplaceI8MagicianNS_9allocatorIS1_EEE21__on_zero_shared_weakEv, symObjAddr: 0x21C0, symBinAddr: 0x100017BB4, symSize: 0x5C }
  - { offsetInCU: 0x8AF7, offset: 0x7AAA7, size: 0x8, addend: 0x0, symName: __ZNSt3__120__shared_ptr_emplaceI8MagicianNS_9allocatorIS1_EEE8_StorageC2B8ue170006EOS3_, symObjAddr: 0x221C, symBinAddr: 0x100017C10, symSize: 0x30 }
  - { offsetInCU: 0x8B30, offset: 0x7AAE0, size: 0x8, addend: 0x0, symName: __ZNSt3__120__shared_ptr_emplaceI8MagicianNS_9allocatorIS1_EEE8_Storage11__get_allocB8ue170006Ev, symObjAddr: 0x224C, symBinAddr: 0x100017C40, symSize: 0x3C }
  - { offsetInCU: 0x8B83, offset: 0x7AB33, size: 0x8, addend: 0x0, symName: __ZNSt3__117__compressed_pairINS_9allocatorI8MagicianEES2_E16__get_first_baseB8ue170006EPS4_, symObjAddr: 0x2288, symBinAddr: 0x100017C7C, symSize: 0x14 }
  - { offsetInCU: 0x8BA6, offset: 0x7AB56, size: 0x8, addend: 0x0, symName: __ZNSt3__120__shared_ptr_emplaceI8MagicianNS_9allocatorIS1_EEE8_StorageD2B8ue170006Ev, symObjAddr: 0x229C, symBinAddr: 0x100017C90, symSize: 0x2C }
  - { offsetInCU: 0x8BD0, offset: 0x7AB80, size: 0x8, addend: 0x0, symName: __ZNSt3__120__shared_ptr_emplaceI8MagicianNS_9allocatorIS1_EEED2Ev, symObjAddr: 0x22C8, symBinAddr: 0x100017CBC, symSize: 0x48 }
  - { offsetInCU: 0x8BFD, offset: 0x7ABAD, size: 0x8, addend: 0x0, symName: __ZNSt3__120__shared_ptr_emplaceI8MagicianNS_9allocatorIS1_EEE11__get_allocB8ue170006Ev, symObjAddr: 0x2310, symBinAddr: 0x100017D04, symSize: 0x28 }
  - { offsetInCU: 0x8C23, offset: 0x7ABD3, size: 0x8, addend: 0x0, symName: __ZNSt3__116allocator_traitsINS_9allocatorINS_20__shared_ptr_emplaceI8MagicianNS1_IS3_EEEEEEE10deallocateB8ue170006ERS6_PS5_m, symObjAddr: 0x2338, symBinAddr: 0x100017D2C, symSize: 0x34 }
  - { offsetInCU: 0x8C65, offset: 0x7AC15, size: 0x8, addend: 0x0, symName: __ZNSt3__114pointer_traitsIPNS_20__shared_ptr_emplaceI8MagicianNS_9allocatorIS2_EEEEE10pointer_toB8ue170006ERS5_, symObjAddr: 0x236C, symBinAddr: 0x100017D60, symSize: 0x14 }
  - { offsetInCU: 0x8C88, offset: 0x7AC38, size: 0x8, addend: 0x0, symName: __ZNSt3__19allocatorINS_20__shared_ptr_emplaceI8MagicianNS0_IS2_EEEEE10deallocateB8ue170006EPS4_m, symObjAddr: 0x2380, symBinAddr: 0x100017D74, symSize: 0x40 }
  - { offsetInCU: 0x8CCA, offset: 0x7AC7A, size: 0x8, addend: 0x0, symName: __ZNSt3__110shared_ptrI8MagicianEC1B8ue170006Ev, symObjAddr: 0x23C0, symBinAddr: 0x100017DB4, symSize: 0x2C }
  - { offsetInCU: 0x8CF4, offset: 0x7ACA4, size: 0x8, addend: 0x0, symName: __ZNSt3__110shared_ptrI8MagicianE18__enable_weak_thisB8ue170006Ez, symObjAddr: 0x23EC, symBinAddr: 0x100017DE0, symSize: 0x10 }
  - { offsetInCU: 0x8D1B, offset: 0x7ACCB, size: 0x8, addend: 0x0, symName: __ZNSt3__110shared_ptrI8MagicianEC2B8ue170006Ev, symObjAddr: 0x23FC, symBinAddr: 0x100017DF0, symSize: 0x1C }
  - { offsetInCU: 0x8D45, offset: 0x7ACF5, size: 0x8, addend: 0x0, symName: __ZNSt3__120__shared_ptr_emplaceI8MagicianNS_9allocatorIS1_EEE8_Storage10__get_elemB8ue170006Ev, symObjAddr: 0x2418, symBinAddr: 0x100017E0C, symSize: 0x3C }
  - { offsetInCU: 0x8D98, offset: 0x7AD48, size: 0x8, addend: 0x0, symName: __ZNSt3__117__compressed_pairINS_9allocatorI8MagicianEES2_E17__get_second_baseB8ue170006EPS4_, symObjAddr: 0x2454, symBinAddr: 0x100017E48, symSize: 0x14 }
  - { offsetInCU: 0x8DBB, offset: 0x7AD6B, size: 0x8, addend: 0x0, symName: __ZNSt3__118__allocation_guardINS_9allocatorINS_20__shared_ptr_emplaceI8MagicianNS1_IS3_EEEEEEED2B8ue170006Ev, symObjAddr: 0x2468, symBinAddr: 0x100017E5C, symSize: 0x2C }
  - { offsetInCU: 0x8DE5, offset: 0x7AD95, size: 0x8, addend: 0x0, symName: __ZNSt3__118__allocation_guardINS_9allocatorINS_20__shared_ptr_emplaceI8MagicianNS1_IS3_EEEEEEE9__destroyB8ue170006Ev, symObjAddr: 0x2494, symBinAddr: 0x100017E88, symSize: 0x4C }
  - { offsetInCU: 0x8E0B, offset: 0x7ADBB, size: 0x8, addend: 0x0, symName: __ZNSt3__19allocatorI8MagicianEC2B8ue170006Ev, symObjAddr: 0x24E0, symBinAddr: 0x100017ED4, symSize: 0x2C }
  - { offsetInCU: 0x8E35, offset: 0x7ADE5, size: 0x8, addend: 0x0, symName: __ZNSt3__116__non_trivial_ifILb1ENS_9allocatorI8MagicianEEEC2B8ue170006Ev, symObjAddr: 0x250C, symBinAddr: 0x100017F00, symSize: 0x14 }
  - { offsetInCU: 0x8E5F, offset: 0x7AE0F, size: 0x8, addend: 0x0, symName: __ZNSt3__110shared_ptrI8MagicianED2B8ue170006Ev, symObjAddr: 0x2520, symBinAddr: 0x100017F14, symSize: 0x54 }
  - { offsetInCU: 0x8E89, offset: 0x7AE39, size: 0x8, addend: 0x0, symName: __ZNSt3__110shared_ptrI3JobEC2B8ue170006I8MagicianvEEONS0_IT_EE, symObjAddr: 0x2574, symBinAddr: 0x100017F68, symSize: 0x40 }
  - { offsetInCU: 0x26, offset: 0x7AF1F, size: 0x8, addend: 0x0, symName: __ZN8Magician9winBattleER6PlayerRK7Monster, symObjAddr: 0x0, symBinAddr: 0x100017FA8, symSize: 0x50 }
  - { offsetInCU: 0x4C2E, offset: 0x7FB27, size: 0x8, addend: 0x0, symName: __ZN8Magician9winBattleER6PlayerRK7Monster, symObjAddr: 0x0, symBinAddr: 0x100017FA8, symSize: 0x50 }
  - { offsetInCU: 0x4C80, offset: 0x7FB79, size: 0x8, addend: 0x0, symName: __ZN8Magician10loseBattleER6PlayerRK7Monster, symObjAddr: 0x50, symBinAddr: 0x100017FF8, symSize: 0x48 }
  - { offsetInCU: 0x4CD2, offset: 0x7FBCB, size: 0x8, addend: 0x0, symName: __ZNK8Magician8addForceEiR6Player, symObjAddr: 0x98, symBinAddr: 0x100018040, symSize: 0x40 }
  - { offsetInCU: 0x4D24, offset: 0x7FC1D, size: 0x8, addend: 0x0, symName: __ZNK8Magician8getMaxhpEv, symObjAddr: 0xD8, symBinAddr: 0x100018080, symSize: 0x14 }
  - { offsetInCU: 0x4D4C, offset: 0x7FC45, size: 0x8, addend: 0x0, symName: __ZNK8Magician16getStartingCoinsEv, symObjAddr: 0xEC, symBinAddr: 0x100018094, symSize: 0x14 }
  - { offsetInCU: 0x4D74, offset: 0x7FC6D, size: 0x8, addend: 0x0, symName: __ZN8Magician9isMagicalEv, symObjAddr: 0x100, symBinAddr: 0x1000180A8, symSize: 0x18 }
  - { offsetInCU: 0x4D9C, offset: 0x7FC95, size: 0x8, addend: 0x0, symName: __ZN8Magician14getCombatPowerER6Player, symObjAddr: 0x118, symBinAddr: 0x1000180C0, symSize: 0x4C }
  - { offsetInCU: 0x4DE0, offset: 0x7FCD9, size: 0x8, addend: 0x0, symName: __ZNK8Magician10getJobNameEv, symObjAddr: 0x164, symBinAddr: 0x10001810C, symSize: 0x3C }
  - { offsetInCU: 0x4E0D, offset: 0x7FD06, size: 0x8, addend: 0x0, symName: __ZN8MagicianC2Ev, symObjAddr: 0x1D4, symBinAddr: 0x100018148, symSize: 0x44 }
  - { offsetInCU: 0x4E39, offset: 0x7FD32, size: 0x8, addend: 0x0, symName: __ZN8MagicianC1Ev, symObjAddr: 0x23C, symBinAddr: 0x10001818C, symSize: 0x2C }
  - { offsetInCU: 0x4E65, offset: 0x7FD5E, size: 0x8, addend: 0x0, symName: __ZN8MagicianD1Ev, symObjAddr: 0x268, symBinAddr: 0x1000181B8, symSize: 0x2C }
  - { offsetInCU: 0x4E8F, offset: 0x7FD88, size: 0x8, addend: 0x0, symName: __ZN8MagicianD0Ev, symObjAddr: 0x294, symBinAddr: 0x1000181E4, symSize: 0x30 }
  - { offsetInCU: 0x4EB9, offset: 0x7FDB2, size: 0x8, addend: 0x0, symName: __ZN8MagicianD2Ev, symObjAddr: 0x2E4, symBinAddr: 0x100018214, symSize: 0x2C }
  - { offsetInCU: 0x2939, offset: 0x8271F, size: 0x8, addend: 0x0, symName: __ZNSt3__1ltB8ue170006IcNS_11char_traitsIcEENS_9allocatorIcEEEEbRKNS_12basic_stringIT_T0_T1_EESB_, symObjAddr: 0xAAC, symBinAddr: 0x1000189D4, symSize: 0x38 }
  - { offsetInCU: 0x4B1F, offset: 0x84905, size: 0x8, addend: 0x0, symName: __ZN6PlayerC2ENSt3__112basic_stringIcNS0_11char_traitsIcEENS0_9allocatorIcEEEENS0_10shared_ptrI3JobEENS7_I9CharacterEEii, symObjAddr: 0x0, symBinAddr: 0x100018240, symSize: 0x138 }
  - { offsetInCU: 0x4B95, offset: 0x8497B, size: 0x8, addend: 0x0, symName: __ZNKSt3__110shared_ptrI3JobEptB8ue170006Ev, symObjAddr: 0x25C, symBinAddr: 0x100018378, symSize: 0x18 }
  - { offsetInCU: 0x4BBA, offset: 0x849A0, size: 0x8, addend: 0x0, symName: __ZN6PlayerC1ENSt3__112basic_stringIcNS0_11char_traitsIcEENS0_9allocatorIcEEEENS0_10shared_ptrI3JobEENS7_I9CharacterEEii, symObjAddr: 0x2CC, symBinAddr: 0x100018390, symSize: 0x54 }
  - { offsetInCU: 0x4C30, offset: 0x84A16, size: 0x8, addend: 0x0, symName: __ZN6Player10buyPotionsEv, symObjAddr: 0x320, symBinAddr: 0x1000183E4, symSize: 0x48 }
  - { offsetInCU: 0x4C58, offset: 0x84A3E, size: 0x8, addend: 0x0, symName: __ZNKSt3__110shared_ptrI9CharacterEptB8ue170006Ev, symObjAddr: 0x368, symBinAddr: 0x10001842C, symSize: 0x18 }
  - { offsetInCU: 0x4C7E, offset: 0x84A64, size: 0x8, addend: 0x0, symName: __ZNK6Player8getForceEv, symObjAddr: 0x380, symBinAddr: 0x100018444, symSize: 0x18 }
  - { offsetInCU: 0x4CA6, offset: 0x84A8C, size: 0x8, addend: 0x0, symName: __ZN6Player7levelUpEv, symObjAddr: 0x398, symBinAddr: 0x10001845C, symSize: 0x20 }
  - { offsetInCU: 0x4CCE, offset: 0x84AB4, size: 0x8, addend: 0x0, symName: __ZN6Player8addCoinsEi, symObjAddr: 0x3B8, symBinAddr: 0x10001847C, symSize: 0x28 }
  - { offsetInCU: 0x4D04, offset: 0x84AEA, size: 0x8, addend: 0x0, symName: __ZN6Player10takeDamageEi, symObjAddr: 0x3E0, symBinAddr: 0x1000184A4, symSize: 0x4C }
  - { offsetInCU: 0x4D3A, offset: 0x84B20, size: 0x8, addend: 0x0, symName: __ZNK6Player6getJobEv, symObjAddr: 0x42C, symBinAddr: 0x1000184F0, symSize: 0x28 }
  - { offsetInCU: 0x4D62, offset: 0x84B48, size: 0x8, addend: 0x0, symName: __ZNKSt3__110shared_ptrI3JobE3getB8ue170006Ev, symObjAddr: 0x454, symBinAddr: 0x100018518, symSize: 0x18 }
  - { offsetInCU: 0x4D88, offset: 0x84B6E, size: 0x8, addend: 0x0, symName: __ZNK6Player7getNameEv, symObjAddr: 0x46C, symBinAddr: 0x100018530, symSize: 0x38 }
  - { offsetInCU: 0x4DB0, offset: 0x84B96, size: 0x8, addend: 0x0, symName: __ZNK6Player8getLevelEv, symObjAddr: 0x4A4, symBinAddr: 0x100018568, symSize: 0x18 }
  - { offsetInCU: 0x4DD8, offset: 0x84BBE, size: 0x8, addend: 0x0, symName: __ZNK6Player15getHealthPointsEv, symObjAddr: 0x4BC, symBinAddr: 0x100018580, symSize: 0x18 }
  - { offsetInCU: 0x4E00, offset: 0x84BE6, size: 0x8, addend: 0x0, symName: __ZNK6Player8getCoinsEv, symObjAddr: 0x4D4, symBinAddr: 0x100018598, symSize: 0x18 }
  - { offsetInCU: 0x4E28, offset: 0x84C0E, size: 0x8, addend: 0x0, symName: __ZNK6Player14getCombatPowerEv, symObjAddr: 0x4EC, symBinAddr: 0x1000185B0, symSize: 0x3C }
  - { offsetInCU: 0x4E50, offset: 0x84C36, size: 0x8, addend: 0x0, symName: __ZNK6Player14getDescriptionEv, symObjAddr: 0x528, symBinAddr: 0x1000185EC, symSize: 0x310 }
  - { offsetInCU: 0x4E78, offset: 0x84C5E, size: 0x8, addend: 0x0, symName: __ZNK6PlayerltERKS_, symObjAddr: 0x9D4, symBinAddr: 0x1000188FC, symSize: 0xD8 }
  - { offsetInCU: 0x4EAE, offset: 0x84C94, size: 0x8, addend: 0x0, symName: __ZNK6Player12isKnockedOutEv, symObjAddr: 0xAE4, symBinAddr: 0x100018A0C, symSize: 0x24 }
  - { offsetInCU: 0x4ED6, offset: 0x84CBC, size: 0x8, addend: 0x0, symName: __ZN6Player8setForceEi, symObjAddr: 0xB08, symBinAddr: 0x100018A30, symSize: 0x20 }
  - { offsetInCU: 0x4F0C, offset: 0x84CF2, size: 0x8, addend: 0x0, symName: __ZNKSt3__112basic_stringIcNS_11char_traitsIcEENS_9allocatorIcEEE7compareB8ue170006ERKS5_, symObjAddr: 0x2598, symBinAddr: 0x100018A50, symSize: 0x4C }
  - { offsetInCU: 0x4F43, offset: 0x84D29, size: 0x8, addend: 0x0, symName: __ZNKSt3__112basic_stringIcNS_11char_traitsIcEENS_9allocatorIcEEE7compareINS_17basic_string_viewIcS2_EELi0EEEiRKT_, symObjAddr: 0x25E4, symBinAddr: 0x100018A9C, symSize: 0x12C }
  - { offsetInCU: 0x4FC6, offset: 0x84DAC, size: 0x8, addend: 0x0, symName: __ZNKSt3__112basic_stringIcNS_11char_traitsIcEENS_9allocatorIcEEEcvNS_17basic_string_viewIcS2_EEB8ue170006Ev, symObjAddr: 0x2710, symBinAddr: 0x100018BC8, symSize: 0x50 }
  - { offsetInCU: 0x4FEC, offset: 0x84DD2, size: 0x8, addend: 0x0, symName: __ZNKSt3__117basic_string_viewIcNS_11char_traitsIcEEE4sizeB8ue170006Ev, symObjAddr: 0x2760, symBinAddr: 0x100018C18, symSize: 0x18 }
  - { offsetInCU: 0x5012, offset: 0x84DF8, size: 0x8, addend: 0x0, symName: __ZNSt3__111char_traitsIcE7compareB8ue170006EPKcS3_m, symObjAddr: 0x2778, symBinAddr: 0x100018C30, symSize: 0x34 }
  - { offsetInCU: 0x5051, offset: 0x84E37, size: 0x8, addend: 0x0, symName: __ZNKSt3__117basic_string_viewIcNS_11char_traitsIcEEE4dataB8ue170006Ev, symObjAddr: 0x27AC, symBinAddr: 0x100018C64, symSize: 0x18 }
  - { offsetInCU: 0x5076, offset: 0x84E5C, size: 0x8, addend: 0x0, symName: __ZNSt3__117basic_string_viewIcNS_11char_traitsIcEEEC1B8ue170006EPKcm, symObjAddr: 0x2878, symBinAddr: 0x100018C7C, symSize: 0x3C }
  - { offsetInCU: 0x50BF, offset: 0x84EA5, size: 0x8, addend: 0x0, symName: __ZNSt3__117basic_string_viewIcNS_11char_traitsIcEEEC2B8ue170006EPKcm, symObjAddr: 0x28B4, symBinAddr: 0x100018CB8, symSize: 0x2C }
  - { offsetInCU: 0x26, offset: 0x84F30, size: 0x8, addend: 0x0, symName: __ZN11Responsible10buyPotionsERiS0_i, symObjAddr: 0x0, symBinAddr: 0x100018CE4, symSize: 0xCC }
  - { offsetInCU: 0x491B, offset: 0x89825, size: 0x8, addend: 0x0, symName: __ZN11Responsible10buyPotionsERiS0_i, symObjAddr: 0x0, symBinAddr: 0x100018CE4, symSize: 0xCC }
  - { offsetInCU: 0x497B, offset: 0x89885, size: 0x8, addend: 0x0, symName: __ZNK11Responsible16getCharacterNameEv, symObjAddr: 0xCC, symBinAddr: 0x100018DB0, symSize: 0x3C }
  - { offsetInCU: 0x49A8, offset: 0x898B2, size: 0x8, addend: 0x0, symName: __ZN11ResponsibleC2Ev, symObjAddr: 0x13C, symBinAddr: 0x100018DEC, symSize: 0x44 }
  - { offsetInCU: 0x49D4, offset: 0x898DE, size: 0x8, addend: 0x0, symName: __ZN9CharacterC2Ev, symObjAddr: 0x180, symBinAddr: 0x100018E30, symSize: 0x24 }
  - { offsetInCU: 0x4A00, offset: 0x8990A, size: 0x8, addend: 0x0, symName: __ZN11ResponsibleC1Ev, symObjAddr: 0x1A4, symBinAddr: 0x100018E54, symSize: 0x2C }
  - { offsetInCU: 0x4A2C, offset: 0x89936, size: 0x8, addend: 0x0, symName: __ZN11ResponsibleD1Ev, symObjAddr: 0x1D0, symBinAddr: 0x100018E80, symSize: 0x2C }
  - { offsetInCU: 0x4A56, offset: 0x89960, size: 0x8, addend: 0x0, symName: __ZN11ResponsibleD0Ev, symObjAddr: 0x1FC, symBinAddr: 0x100018EAC, symSize: 0x30 }
  - { offsetInCU: 0x4A80, offset: 0x8998A, size: 0x8, addend: 0x0, symName: __ZN9CharacterD1Ev, symObjAddr: 0x22C, symBinAddr: 0x100018EDC, symSize: 0x14 }
  - { offsetInCU: 0x4AAA, offset: 0x899B4, size: 0x8, addend: 0x0, symName: __ZN9CharacterD0Ev, symObjAddr: 0x240, symBinAddr: 0x100018EF0, symSize: 0xC }
  - { offsetInCU: 0x4AD4, offset: 0x899DE, size: 0x8, addend: 0x0, symName: __ZN11ResponsibleD2Ev, symObjAddr: 0x24C, symBinAddr: 0x100018EFC, symSize: 0x2C }
  - { offsetInCU: 0x4AFE, offset: 0x89A08, size: 0x8, addend: 0x0, symName: __ZN9CharacterD2Ev, symObjAddr: 0x278, symBinAddr: 0x100018F28, symSize: 0x14 }
  - { offsetInCU: 0x26, offset: 0x89A67, size: 0x8, addend: 0x0, symName: __ZN10RiskTaking10buyPotionsERiS0_i, symObjAddr: 0x0, symBinAddr: 0x100018F3C, symSize: 0x98 }
  - { offsetInCU: 0x4853, offset: 0x8E294, size: 0x8, addend: 0x0, symName: __ZN10RiskTaking10buyPotionsERiS0_i, symObjAddr: 0x0, symBinAddr: 0x100018F3C, symSize: 0x98 }
  - { offsetInCU: 0x48B3, offset: 0x8E2F4, size: 0x8, addend: 0x0, symName: __ZNK10RiskTaking16getCharacterNameEv, symObjAddr: 0x98, symBinAddr: 0x100018FD4, symSize: 0x3C }
  - { offsetInCU: 0x48E0, offset: 0x8E321, size: 0x8, addend: 0x0, symName: __ZN10RiskTakingC2Ev, symObjAddr: 0x108, symBinAddr: 0x100019010, symSize: 0x44 }
  - { offsetInCU: 0x490C, offset: 0x8E34D, size: 0x8, addend: 0x0, symName: __ZN10RiskTakingC1Ev, symObjAddr: 0x170, symBinAddr: 0x100019054, symSize: 0x2C }
  - { offsetInCU: 0x4938, offset: 0x8E379, size: 0x8, addend: 0x0, symName: __ZN10RiskTakingD1Ev, symObjAddr: 0x19C, symBinAddr: 0x100019080, symSize: 0x2C }
  - { offsetInCU: 0x4962, offset: 0x8E3A3, size: 0x8, addend: 0x0, symName: __ZN10RiskTakingD0Ev, symObjAddr: 0x1C8, symBinAddr: 0x1000190AC, symSize: 0x30 }
  - { offsetInCU: 0x498C, offset: 0x8E3CD, size: 0x8, addend: 0x0, symName: __ZN10RiskTakingD2Ev, symObjAddr: 0x218, symBinAddr: 0x1000190DC, symSize: 0x2C }
  - { offsetInCU: 0x26, offset: 0x8E427, size: 0x8, addend: 0x0, symName: __ZN7Warrior9winBattleER6PlayerRK7Monster, symObjAddr: 0x0, symBinAddr: 0x100019108, symSize: 0x5C }
  - { offsetInCU: 0x4C2E, offset: 0x9302F, size: 0x8, addend: 0x0, symName: __ZN7Warrior9winBattleER6PlayerRK7Monster, symObjAddr: 0x0, symBinAddr: 0x100019108, symSize: 0x5C }
  - { offsetInCU: 0x4C80, offset: 0x93081, size: 0x8, addend: 0x0, symName: __ZN7Warrior10loseBattleER6PlayerRK7Monster, symObjAddr: 0x5C, symBinAddr: 0x100019164, symSize: 0x54 }
  - { offsetInCU: 0x4CD2, offset: 0x930D3, size: 0x8, addend: 0x0, symName: __ZNK7Warrior8addForceEiR6Player, symObjAddr: 0xB0, symBinAddr: 0x1000191B8, symSize: 0x40 }
  - { offsetInCU: 0x4D24, offset: 0x93125, size: 0x8, addend: 0x0, symName: __ZNK7Warrior8getMaxhpEv, symObjAddr: 0xF0, symBinAddr: 0x1000191F8, symSize: 0x14 }
  - { offsetInCU: 0x4D4C, offset: 0x9314D, size: 0x8, addend: 0x0, symName: __ZNK7Warrior16getStartingCoinsEv, symObjAddr: 0x104, symBinAddr: 0x10001920C, symSize: 0x14 }
  - { offsetInCU: 0x4D74, offset: 0x93175, size: 0x8, addend: 0x0, symName: __ZN7Warrior9isMagicalEv, symObjAddr: 0x118, symBinAddr: 0x100019220, symSize: 0x18 }
  - { offsetInCU: 0x4D9C, offset: 0x9319D, size: 0x8, addend: 0x0, symName: __ZN7Warrior14getCombatPowerER6Player, symObjAddr: 0x130, symBinAddr: 0x100019238, symSize: 0x48 }
  - { offsetInCU: 0x4DE0, offset: 0x931E1, size: 0x8, addend: 0x0, symName: __ZNK7Warrior10getJobNameEv, symObjAddr: 0x178, symBinAddr: 0x100019280, symSize: 0x3C }
  - { offsetInCU: 0x4E0D, offset: 0x9320E, size: 0x8, addend: 0x0, symName: __ZN7WarriorC2Ev, symObjAddr: 0x1E8, symBinAddr: 0x1000192BC, symSize: 0x44 }
  - { offsetInCU: 0x4E39, offset: 0x9323A, size: 0x8, addend: 0x0, symName: __ZN7WarriorC1Ev, symObjAddr: 0x250, symBinAddr: 0x100019300, symSize: 0x2C }
  - { offsetInCU: 0x4E65, offset: 0x93266, size: 0x8, addend: 0x0, symName: __ZN7WarriorD1Ev, symObjAddr: 0x27C, symBinAddr: 0x10001932C, symSize: 0x2C }
  - { offsetInCU: 0x4E8F, offset: 0x93290, size: 0x8, addend: 0x0, symName: __ZN7WarriorD0Ev, symObjAddr: 0x2A8, symBinAddr: 0x100019358, symSize: 0x30 }
  - { offsetInCU: 0x4EB9, offset: 0x932BA, size: 0x8, addend: 0x0, symName: __ZN7WarriorD2Ev, symObjAddr: 0x2F8, symBinAddr: 0x100019388, symSize: 0x2C }
...
